ARM GAS  C:\Users\Student\AppData\Local\Temp\ccbW8nln.s 			page 1


   1              		.cpu cortex-m7
   2              		.eabi_attribute 27, 1
   3              		.eabi_attribute 28, 1
   4              		.eabi_attribute 20, 1
   5              		.eabi_attribute 21, 1
   6              		.eabi_attribute 23, 3
   7              		.eabi_attribute 24, 1
   8              		.eabi_attribute 25, 1
   9              		.eabi_attribute 26, 1
  10              		.eabi_attribute 30, 1
  11              		.eabi_attribute 34, 1
  12              		.eabi_attribute 18, 4
  13              		.file	"stm32746g_discovery_qspi.c"
  14              		.text
  15              	.Ltext0:
  16              		.cfi_sections	.debug_frame
  17              		.section	.text.QSPI_AutoPollingMemReady,"ax",%progbits
  18              		.align	1
  19              		.syntax unified
  20              		.thumb
  21              		.thumb_func
  22              		.fpu fpv5-sp-d16
  24              	QSPI_AutoPollingMemReady:
  25              	.LFB150:
  26              		.file 1 "Drivers/BSP/STM32746G-Discovery/stm32746g_discovery_qspi.c"
   1:Drivers/BSP/STM32746G-Discovery/stm32746g_discovery_qspi.c **** /**
   2:Drivers/BSP/STM32746G-Discovery/stm32746g_discovery_qspi.c ****   ******************************************************************************
   3:Drivers/BSP/STM32746G-Discovery/stm32746g_discovery_qspi.c ****   * @file    stm32746g_discovery_qspi.c
   4:Drivers/BSP/STM32746G-Discovery/stm32746g_discovery_qspi.c ****   * @author  MCD Application Team
   5:Drivers/BSP/STM32746G-Discovery/stm32746g_discovery_qspi.c ****   * @brief   This file includes a standard driver for the N25Q128A QSPI
   6:Drivers/BSP/STM32746G-Discovery/stm32746g_discovery_qspi.c ****   *          memory mounted on STM32746G-Discovery board.
   7:Drivers/BSP/STM32746G-Discovery/stm32746g_discovery_qspi.c ****   @verbatim
   8:Drivers/BSP/STM32746G-Discovery/stm32746g_discovery_qspi.c ****   ==============================================================================
   9:Drivers/BSP/STM32746G-Discovery/stm32746g_discovery_qspi.c ****                      ##### How to use this driver #####
  10:Drivers/BSP/STM32746G-Discovery/stm32746g_discovery_qspi.c ****   ==============================================================================  
  11:Drivers/BSP/STM32746G-Discovery/stm32746g_discovery_qspi.c ****   [..] 
  12:Drivers/BSP/STM32746G-Discovery/stm32746g_discovery_qspi.c ****    (#) This driver is used to drive the N25Q128A QSPI external
  13:Drivers/BSP/STM32746G-Discovery/stm32746g_discovery_qspi.c ****        memory mounted on STM32746G-Discovery board.
  14:Drivers/BSP/STM32746G-Discovery/stm32746g_discovery_qspi.c ****        
  15:Drivers/BSP/STM32746G-Discovery/stm32746g_discovery_qspi.c ****    (#) This driver need a specific component driver (N25Q128A) to be included with.
  16:Drivers/BSP/STM32746G-Discovery/stm32746g_discovery_qspi.c **** 
  17:Drivers/BSP/STM32746G-Discovery/stm32746g_discovery_qspi.c ****    (#) Initialization steps:
  18:Drivers/BSP/STM32746G-Discovery/stm32746g_discovery_qspi.c ****        (++) Initialize the QPSI external memory using the BSP_QSPI_Init() function. This 
  19:Drivers/BSP/STM32746G-Discovery/stm32746g_discovery_qspi.c ****             function includes the MSP layer hardware resources initialization and the
  20:Drivers/BSP/STM32746G-Discovery/stm32746g_discovery_qspi.c ****             QSPI interface with the external memory.
  21:Drivers/BSP/STM32746G-Discovery/stm32746g_discovery_qspi.c ****   
  22:Drivers/BSP/STM32746G-Discovery/stm32746g_discovery_qspi.c ****    (#) QSPI memory operations
  23:Drivers/BSP/STM32746G-Discovery/stm32746g_discovery_qspi.c ****        (++) QSPI memory can be accessed with read/write operations once it is
  24:Drivers/BSP/STM32746G-Discovery/stm32746g_discovery_qspi.c ****             initialized.
  25:Drivers/BSP/STM32746G-Discovery/stm32746g_discovery_qspi.c ****             Read/write operation can be performed with AHB access using the functions
  26:Drivers/BSP/STM32746G-Discovery/stm32746g_discovery_qspi.c ****             BSP_QSPI_Read()/BSP_QSPI_Write(). 
  27:Drivers/BSP/STM32746G-Discovery/stm32746g_discovery_qspi.c ****        (++) The function BSP_QSPI_GetInfo() returns the configuration of the QSPI memory. 
  28:Drivers/BSP/STM32746G-Discovery/stm32746g_discovery_qspi.c ****             (see the QSPI memory data sheet)
  29:Drivers/BSP/STM32746G-Discovery/stm32746g_discovery_qspi.c ****        (++) Perform erase block operation using the function BSP_QSPI_Erase_Block() and by
  30:Drivers/BSP/STM32746G-Discovery/stm32746g_discovery_qspi.c ****             specifying the block address. You can perform an erase operation of the whole 
  31:Drivers/BSP/STM32746G-Discovery/stm32746g_discovery_qspi.c ****             chip by calling the function BSP_QSPI_Erase_Chip(). 
  32:Drivers/BSP/STM32746G-Discovery/stm32746g_discovery_qspi.c ****        (++) The function BSP_QSPI_GetStatus() returns the current status of the QSPI memory. 
ARM GAS  C:\Users\Student\AppData\Local\Temp\ccbW8nln.s 			page 2


  33:Drivers/BSP/STM32746G-Discovery/stm32746g_discovery_qspi.c ****             (see the QSPI memory data sheet)
  34:Drivers/BSP/STM32746G-Discovery/stm32746g_discovery_qspi.c ****   @endverbatim
  35:Drivers/BSP/STM32746G-Discovery/stm32746g_discovery_qspi.c ****   ******************************************************************************
  36:Drivers/BSP/STM32746G-Discovery/stm32746g_discovery_qspi.c ****   * @attention
  37:Drivers/BSP/STM32746G-Discovery/stm32746g_discovery_qspi.c ****   *
  38:Drivers/BSP/STM32746G-Discovery/stm32746g_discovery_qspi.c ****   * <h2><center>&copy; COPYRIGHT(c) 2016 STMicroelectronics</center></h2>
  39:Drivers/BSP/STM32746G-Discovery/stm32746g_discovery_qspi.c ****   *
  40:Drivers/BSP/STM32746G-Discovery/stm32746g_discovery_qspi.c ****   * Redistribution and use in source and binary forms, with or without modification,
  41:Drivers/BSP/STM32746G-Discovery/stm32746g_discovery_qspi.c ****   * are permitted provided that the following conditions are met:
  42:Drivers/BSP/STM32746G-Discovery/stm32746g_discovery_qspi.c ****   *   1. Redistributions of source code must retain the above copyright notice,
  43:Drivers/BSP/STM32746G-Discovery/stm32746g_discovery_qspi.c ****   *      this list of conditions and the following disclaimer.
  44:Drivers/BSP/STM32746G-Discovery/stm32746g_discovery_qspi.c ****   *   2. Redistributions in binary form must reproduce the above copyright notice,
  45:Drivers/BSP/STM32746G-Discovery/stm32746g_discovery_qspi.c ****   *      this list of conditions and the following disclaimer in the documentation
  46:Drivers/BSP/STM32746G-Discovery/stm32746g_discovery_qspi.c ****   *      and/or other materials provided with the distribution.
  47:Drivers/BSP/STM32746G-Discovery/stm32746g_discovery_qspi.c ****   *   3. Neither the name of STMicroelectronics nor the names of its contributors
  48:Drivers/BSP/STM32746G-Discovery/stm32746g_discovery_qspi.c ****   *      may be used to endorse or promote products derived from this software
  49:Drivers/BSP/STM32746G-Discovery/stm32746g_discovery_qspi.c ****   *      without specific prior written permission.
  50:Drivers/BSP/STM32746G-Discovery/stm32746g_discovery_qspi.c ****   *
  51:Drivers/BSP/STM32746G-Discovery/stm32746g_discovery_qspi.c ****   * THIS SOFTWARE IS PROVIDED BY THE COPYRIGHT HOLDERS AND CONTRIBUTORS "AS IS"
  52:Drivers/BSP/STM32746G-Discovery/stm32746g_discovery_qspi.c ****   * AND ANY EXPRESS OR IMPLIED WARRANTIES, INCLUDING, BUT NOT LIMITED TO, THE
  53:Drivers/BSP/STM32746G-Discovery/stm32746g_discovery_qspi.c ****   * IMPLIED WARRANTIES OF MERCHANTABILITY AND FITNESS FOR A PARTICULAR PURPOSE ARE
  54:Drivers/BSP/STM32746G-Discovery/stm32746g_discovery_qspi.c ****   * DISCLAIMED. IN NO EVENT SHALL THE COPYRIGHT HOLDER OR CONTRIBUTORS BE LIABLE
  55:Drivers/BSP/STM32746G-Discovery/stm32746g_discovery_qspi.c ****   * FOR ANY DIRECT, INDIRECT, INCIDENTAL, SPECIAL, EXEMPLARY, OR CONSEQUENTIAL
  56:Drivers/BSP/STM32746G-Discovery/stm32746g_discovery_qspi.c ****   * DAMAGES (INCLUDING, BUT NOT LIMITED TO, PROCUREMENT OF SUBSTITUTE GOODS OR
  57:Drivers/BSP/STM32746G-Discovery/stm32746g_discovery_qspi.c ****   * SERVICES; LOSS OF USE, DATA, OR PROFITS; OR BUSINESS INTERRUPTION) HOWEVER
  58:Drivers/BSP/STM32746G-Discovery/stm32746g_discovery_qspi.c ****   * CAUSED AND ON ANY THEORY OF LIABILITY, WHETHER IN CONTRACT, STRICT LIABILITY,
  59:Drivers/BSP/STM32746G-Discovery/stm32746g_discovery_qspi.c ****   * OR TORT (INCLUDING NEGLIGENCE OR OTHERWISE) ARISING IN ANY WAY OUT OF THE USE
  60:Drivers/BSP/STM32746G-Discovery/stm32746g_discovery_qspi.c ****   * OF THIS SOFTWARE, EVEN IF ADVISED OF THE POSSIBILITY OF SUCH DAMAGE.
  61:Drivers/BSP/STM32746G-Discovery/stm32746g_discovery_qspi.c ****   *
  62:Drivers/BSP/STM32746G-Discovery/stm32746g_discovery_qspi.c ****   ******************************************************************************
  63:Drivers/BSP/STM32746G-Discovery/stm32746g_discovery_qspi.c ****   */ 
  64:Drivers/BSP/STM32746G-Discovery/stm32746g_discovery_qspi.c **** 
  65:Drivers/BSP/STM32746G-Discovery/stm32746g_discovery_qspi.c **** /* Dependencies
  66:Drivers/BSP/STM32746G-Discovery/stm32746g_discovery_qspi.c **** - stm32f7xx_hal_qspi.c
  67:Drivers/BSP/STM32746G-Discovery/stm32746g_discovery_qspi.c **** - stm32f7xx_hal_gpio.c
  68:Drivers/BSP/STM32746G-Discovery/stm32746g_discovery_qspi.c **** - stm32f7xx_hal_cortex.c
  69:Drivers/BSP/STM32746G-Discovery/stm32746g_discovery_qspi.c **** - stm32f7xx_hal_rcc_ex.h
  70:Drivers/BSP/STM32746G-Discovery/stm32746g_discovery_qspi.c **** - n25q128a.h
  71:Drivers/BSP/STM32746G-Discovery/stm32746g_discovery_qspi.c **** EndDependencies */
  72:Drivers/BSP/STM32746G-Discovery/stm32746g_discovery_qspi.c **** 
  73:Drivers/BSP/STM32746G-Discovery/stm32746g_discovery_qspi.c **** /* Includes ------------------------------------------------------------------*/
  74:Drivers/BSP/STM32746G-Discovery/stm32746g_discovery_qspi.c **** #include "stm32746g_discovery_qspi.h"
  75:Drivers/BSP/STM32746G-Discovery/stm32746g_discovery_qspi.c **** 
  76:Drivers/BSP/STM32746G-Discovery/stm32746g_discovery_qspi.c **** /** @addtogroup BSP
  77:Drivers/BSP/STM32746G-Discovery/stm32746g_discovery_qspi.c ****   * @{
  78:Drivers/BSP/STM32746G-Discovery/stm32746g_discovery_qspi.c ****   */
  79:Drivers/BSP/STM32746G-Discovery/stm32746g_discovery_qspi.c **** 
  80:Drivers/BSP/STM32746G-Discovery/stm32746g_discovery_qspi.c **** /** @addtogroup STM32746G_DISCOVERY
  81:Drivers/BSP/STM32746G-Discovery/stm32746g_discovery_qspi.c ****   * @{
  82:Drivers/BSP/STM32746G-Discovery/stm32746g_discovery_qspi.c ****   */ 
  83:Drivers/BSP/STM32746G-Discovery/stm32746g_discovery_qspi.c ****   
  84:Drivers/BSP/STM32746G-Discovery/stm32746g_discovery_qspi.c **** /** @defgroup STM32746G_DISCOVERY_QSPI STM32746G-Discovery QSPI
  85:Drivers/BSP/STM32746G-Discovery/stm32746g_discovery_qspi.c ****   * @{
  86:Drivers/BSP/STM32746G-Discovery/stm32746g_discovery_qspi.c ****   */ 
  87:Drivers/BSP/STM32746G-Discovery/stm32746g_discovery_qspi.c **** 
  88:Drivers/BSP/STM32746G-Discovery/stm32746g_discovery_qspi.c **** 
  89:Drivers/BSP/STM32746G-Discovery/stm32746g_discovery_qspi.c **** /* Private variables ---------------------------------------------------------*/
ARM GAS  C:\Users\Student\AppData\Local\Temp\ccbW8nln.s 			page 3


  90:Drivers/BSP/STM32746G-Discovery/stm32746g_discovery_qspi.c **** 
  91:Drivers/BSP/STM32746G-Discovery/stm32746g_discovery_qspi.c **** /** @defgroup STM32746G_DISCOVERY_QSPI_Private_Variables STM32746G_DISCOVERY QSPI Private Variables
  92:Drivers/BSP/STM32746G-Discovery/stm32746g_discovery_qspi.c ****   * @{
  93:Drivers/BSP/STM32746G-Discovery/stm32746g_discovery_qspi.c ****   */       
  94:Drivers/BSP/STM32746G-Discovery/stm32746g_discovery_qspi.c **** QSPI_HandleTypeDef QSPIHandle;
  95:Drivers/BSP/STM32746G-Discovery/stm32746g_discovery_qspi.c **** 
  96:Drivers/BSP/STM32746G-Discovery/stm32746g_discovery_qspi.c **** /**
  97:Drivers/BSP/STM32746G-Discovery/stm32746g_discovery_qspi.c ****   * @}
  98:Drivers/BSP/STM32746G-Discovery/stm32746g_discovery_qspi.c ****   */ 
  99:Drivers/BSP/STM32746G-Discovery/stm32746g_discovery_qspi.c **** 
 100:Drivers/BSP/STM32746G-Discovery/stm32746g_discovery_qspi.c **** 
 101:Drivers/BSP/STM32746G-Discovery/stm32746g_discovery_qspi.c **** 
 102:Drivers/BSP/STM32746G-Discovery/stm32746g_discovery_qspi.c **** /* Private functions ---------------------------------------------------------*/
 103:Drivers/BSP/STM32746G-Discovery/stm32746g_discovery_qspi.c ****     
 104:Drivers/BSP/STM32746G-Discovery/stm32746g_discovery_qspi.c **** /** @defgroup STM32746G_DISCOVERY_QSPI_Private_Functions STM32746G_DISCOVERY QSPI Private Functions
 105:Drivers/BSP/STM32746G-Discovery/stm32746g_discovery_qspi.c ****   * @{
 106:Drivers/BSP/STM32746G-Discovery/stm32746g_discovery_qspi.c ****   */ 
 107:Drivers/BSP/STM32746G-Discovery/stm32746g_discovery_qspi.c **** static uint8_t QSPI_ResetMemory          (QSPI_HandleTypeDef *hqspi);
 108:Drivers/BSP/STM32746G-Discovery/stm32746g_discovery_qspi.c **** static uint8_t QSPI_DummyCyclesCfg       (QSPI_HandleTypeDef *hqspi);
 109:Drivers/BSP/STM32746G-Discovery/stm32746g_discovery_qspi.c **** static uint8_t QSPI_WriteEnable          (QSPI_HandleTypeDef *hqspi);
 110:Drivers/BSP/STM32746G-Discovery/stm32746g_discovery_qspi.c **** static uint8_t QSPI_AutoPollingMemReady  (QSPI_HandleTypeDef *hqspi, uint32_t Timeout);
 111:Drivers/BSP/STM32746G-Discovery/stm32746g_discovery_qspi.c **** 
 112:Drivers/BSP/STM32746G-Discovery/stm32746g_discovery_qspi.c **** /**
 113:Drivers/BSP/STM32746G-Discovery/stm32746g_discovery_qspi.c ****   * @}
 114:Drivers/BSP/STM32746G-Discovery/stm32746g_discovery_qspi.c ****   */
 115:Drivers/BSP/STM32746G-Discovery/stm32746g_discovery_qspi.c ****     
 116:Drivers/BSP/STM32746G-Discovery/stm32746g_discovery_qspi.c **** /** @defgroup STM32746G_DISCOVERY_QSPI_Exported_Functions STM32746G_DISCOVERY QSPI Exported Functio
 117:Drivers/BSP/STM32746G-Discovery/stm32746g_discovery_qspi.c ****   * @{
 118:Drivers/BSP/STM32746G-Discovery/stm32746g_discovery_qspi.c ****   */ 
 119:Drivers/BSP/STM32746G-Discovery/stm32746g_discovery_qspi.c **** 
 120:Drivers/BSP/STM32746G-Discovery/stm32746g_discovery_qspi.c **** /**
 121:Drivers/BSP/STM32746G-Discovery/stm32746g_discovery_qspi.c ****   * @brief  Initializes the QSPI interface.
 122:Drivers/BSP/STM32746G-Discovery/stm32746g_discovery_qspi.c ****   * @retval QSPI memory status
 123:Drivers/BSP/STM32746G-Discovery/stm32746g_discovery_qspi.c ****   */
 124:Drivers/BSP/STM32746G-Discovery/stm32746g_discovery_qspi.c **** uint8_t BSP_QSPI_Init(void)
 125:Drivers/BSP/STM32746G-Discovery/stm32746g_discovery_qspi.c **** { 
 126:Drivers/BSP/STM32746G-Discovery/stm32746g_discovery_qspi.c ****   QSPIHandle.Instance = QUADSPI;
 127:Drivers/BSP/STM32746G-Discovery/stm32746g_discovery_qspi.c **** 
 128:Drivers/BSP/STM32746G-Discovery/stm32746g_discovery_qspi.c ****   /* Call the DeInit function to reset the driver */
 129:Drivers/BSP/STM32746G-Discovery/stm32746g_discovery_qspi.c ****   if (HAL_QSPI_DeInit(&QSPIHandle) != HAL_OK)
 130:Drivers/BSP/STM32746G-Discovery/stm32746g_discovery_qspi.c ****   {
 131:Drivers/BSP/STM32746G-Discovery/stm32746g_discovery_qspi.c ****     return QSPI_ERROR;
 132:Drivers/BSP/STM32746G-Discovery/stm32746g_discovery_qspi.c ****   }
 133:Drivers/BSP/STM32746G-Discovery/stm32746g_discovery_qspi.c ****         
 134:Drivers/BSP/STM32746G-Discovery/stm32746g_discovery_qspi.c ****   /* System level initialization */
 135:Drivers/BSP/STM32746G-Discovery/stm32746g_discovery_qspi.c ****   BSP_QSPI_MspInit(&QSPIHandle, NULL);
 136:Drivers/BSP/STM32746G-Discovery/stm32746g_discovery_qspi.c ****   
 137:Drivers/BSP/STM32746G-Discovery/stm32746g_discovery_qspi.c ****   /* QSPI initialization */
 138:Drivers/BSP/STM32746G-Discovery/stm32746g_discovery_qspi.c ****   QSPIHandle.Init.ClockPrescaler     = 1; /* QSPI freq = 216 MHz/(1+1) = 108 Mhz */
 139:Drivers/BSP/STM32746G-Discovery/stm32746g_discovery_qspi.c ****   QSPIHandle.Init.FifoThreshold      = 4;
 140:Drivers/BSP/STM32746G-Discovery/stm32746g_discovery_qspi.c ****   QSPIHandle.Init.SampleShifting     = QSPI_SAMPLE_SHIFTING_HALFCYCLE;
 141:Drivers/BSP/STM32746G-Discovery/stm32746g_discovery_qspi.c ****   QSPIHandle.Init.FlashSize          = POSITION_VAL(N25Q128A_FLASH_SIZE) - 1;
 142:Drivers/BSP/STM32746G-Discovery/stm32746g_discovery_qspi.c ****   QSPIHandle.Init.ChipSelectHighTime = QSPI_CS_HIGH_TIME_6_CYCLE; /* Min 50ns for nonRead */
 143:Drivers/BSP/STM32746G-Discovery/stm32746g_discovery_qspi.c ****   QSPIHandle.Init.ClockMode          = QSPI_CLOCK_MODE_0;
 144:Drivers/BSP/STM32746G-Discovery/stm32746g_discovery_qspi.c ****   QSPIHandle.Init.FlashID            = QSPI_FLASH_ID_1;
 145:Drivers/BSP/STM32746G-Discovery/stm32746g_discovery_qspi.c ****   QSPIHandle.Init.DualFlash          = QSPI_DUALFLASH_DISABLE;
 146:Drivers/BSP/STM32746G-Discovery/stm32746g_discovery_qspi.c **** 
ARM GAS  C:\Users\Student\AppData\Local\Temp\ccbW8nln.s 			page 4


 147:Drivers/BSP/STM32746G-Discovery/stm32746g_discovery_qspi.c ****   if (HAL_QSPI_Init(&QSPIHandle) != HAL_OK)
 148:Drivers/BSP/STM32746G-Discovery/stm32746g_discovery_qspi.c ****   {
 149:Drivers/BSP/STM32746G-Discovery/stm32746g_discovery_qspi.c ****     return QSPI_ERROR;
 150:Drivers/BSP/STM32746G-Discovery/stm32746g_discovery_qspi.c ****   }
 151:Drivers/BSP/STM32746G-Discovery/stm32746g_discovery_qspi.c **** 
 152:Drivers/BSP/STM32746G-Discovery/stm32746g_discovery_qspi.c ****   /* QSPI memory reset */
 153:Drivers/BSP/STM32746G-Discovery/stm32746g_discovery_qspi.c ****   if (QSPI_ResetMemory(&QSPIHandle) != QSPI_OK)
 154:Drivers/BSP/STM32746G-Discovery/stm32746g_discovery_qspi.c ****   {
 155:Drivers/BSP/STM32746G-Discovery/stm32746g_discovery_qspi.c ****     return QSPI_NOT_SUPPORTED;
 156:Drivers/BSP/STM32746G-Discovery/stm32746g_discovery_qspi.c ****   }
 157:Drivers/BSP/STM32746G-Discovery/stm32746g_discovery_qspi.c ****  
 158:Drivers/BSP/STM32746G-Discovery/stm32746g_discovery_qspi.c ****   /* Configuration of the dummy cycles on QSPI memory side */
 159:Drivers/BSP/STM32746G-Discovery/stm32746g_discovery_qspi.c ****   if (QSPI_DummyCyclesCfg(&QSPIHandle) != QSPI_OK)
 160:Drivers/BSP/STM32746G-Discovery/stm32746g_discovery_qspi.c ****   {
 161:Drivers/BSP/STM32746G-Discovery/stm32746g_discovery_qspi.c ****     return QSPI_NOT_SUPPORTED;
 162:Drivers/BSP/STM32746G-Discovery/stm32746g_discovery_qspi.c ****   }
 163:Drivers/BSP/STM32746G-Discovery/stm32746g_discovery_qspi.c ****   
 164:Drivers/BSP/STM32746G-Discovery/stm32746g_discovery_qspi.c ****   return QSPI_OK;
 165:Drivers/BSP/STM32746G-Discovery/stm32746g_discovery_qspi.c **** }
 166:Drivers/BSP/STM32746G-Discovery/stm32746g_discovery_qspi.c **** 
 167:Drivers/BSP/STM32746G-Discovery/stm32746g_discovery_qspi.c **** /**
 168:Drivers/BSP/STM32746G-Discovery/stm32746g_discovery_qspi.c ****   * @brief  De-Initializes the QSPI interface.
 169:Drivers/BSP/STM32746G-Discovery/stm32746g_discovery_qspi.c ****   * @retval QSPI memory status
 170:Drivers/BSP/STM32746G-Discovery/stm32746g_discovery_qspi.c ****   */
 171:Drivers/BSP/STM32746G-Discovery/stm32746g_discovery_qspi.c **** uint8_t BSP_QSPI_DeInit(void)
 172:Drivers/BSP/STM32746G-Discovery/stm32746g_discovery_qspi.c **** { 
 173:Drivers/BSP/STM32746G-Discovery/stm32746g_discovery_qspi.c ****   QSPIHandle.Instance = QUADSPI;
 174:Drivers/BSP/STM32746G-Discovery/stm32746g_discovery_qspi.c **** 
 175:Drivers/BSP/STM32746G-Discovery/stm32746g_discovery_qspi.c ****   /* Call the DeInit function to reset the driver */
 176:Drivers/BSP/STM32746G-Discovery/stm32746g_discovery_qspi.c ****   if (HAL_QSPI_DeInit(&QSPIHandle) != HAL_OK)
 177:Drivers/BSP/STM32746G-Discovery/stm32746g_discovery_qspi.c ****   {
 178:Drivers/BSP/STM32746G-Discovery/stm32746g_discovery_qspi.c ****     return QSPI_ERROR;
 179:Drivers/BSP/STM32746G-Discovery/stm32746g_discovery_qspi.c ****   }
 180:Drivers/BSP/STM32746G-Discovery/stm32746g_discovery_qspi.c ****         
 181:Drivers/BSP/STM32746G-Discovery/stm32746g_discovery_qspi.c ****   /* System level De-initialization */
 182:Drivers/BSP/STM32746G-Discovery/stm32746g_discovery_qspi.c ****   BSP_QSPI_MspDeInit(&QSPIHandle, NULL);
 183:Drivers/BSP/STM32746G-Discovery/stm32746g_discovery_qspi.c ****   
 184:Drivers/BSP/STM32746G-Discovery/stm32746g_discovery_qspi.c ****   return QSPI_OK;
 185:Drivers/BSP/STM32746G-Discovery/stm32746g_discovery_qspi.c **** }
 186:Drivers/BSP/STM32746G-Discovery/stm32746g_discovery_qspi.c **** 
 187:Drivers/BSP/STM32746G-Discovery/stm32746g_discovery_qspi.c **** /**
 188:Drivers/BSP/STM32746G-Discovery/stm32746g_discovery_qspi.c ****   * @brief  Reads an amount of data from the QSPI memory.
 189:Drivers/BSP/STM32746G-Discovery/stm32746g_discovery_qspi.c ****   * @param  pData: Pointer to data to be read
 190:Drivers/BSP/STM32746G-Discovery/stm32746g_discovery_qspi.c ****   * @param  ReadAddr: Read start address
 191:Drivers/BSP/STM32746G-Discovery/stm32746g_discovery_qspi.c ****   * @param  Size: Size of data to read    
 192:Drivers/BSP/STM32746G-Discovery/stm32746g_discovery_qspi.c ****   * @retval QSPI memory status
 193:Drivers/BSP/STM32746G-Discovery/stm32746g_discovery_qspi.c ****   */
 194:Drivers/BSP/STM32746G-Discovery/stm32746g_discovery_qspi.c **** uint8_t BSP_QSPI_Read(uint8_t* pData, uint32_t ReadAddr, uint32_t Size)
 195:Drivers/BSP/STM32746G-Discovery/stm32746g_discovery_qspi.c **** {
 196:Drivers/BSP/STM32746G-Discovery/stm32746g_discovery_qspi.c ****   QSPI_CommandTypeDef s_command;
 197:Drivers/BSP/STM32746G-Discovery/stm32746g_discovery_qspi.c **** 
 198:Drivers/BSP/STM32746G-Discovery/stm32746g_discovery_qspi.c ****   /* Initialize the read command */
 199:Drivers/BSP/STM32746G-Discovery/stm32746g_discovery_qspi.c ****   s_command.InstructionMode   = QSPI_INSTRUCTION_1_LINE;
 200:Drivers/BSP/STM32746G-Discovery/stm32746g_discovery_qspi.c ****   s_command.Instruction       = QUAD_INOUT_FAST_READ_CMD;
 201:Drivers/BSP/STM32746G-Discovery/stm32746g_discovery_qspi.c ****   s_command.AddressMode       = QSPI_ADDRESS_4_LINES;
 202:Drivers/BSP/STM32746G-Discovery/stm32746g_discovery_qspi.c ****   s_command.AddressSize       = QSPI_ADDRESS_24_BITS;
 203:Drivers/BSP/STM32746G-Discovery/stm32746g_discovery_qspi.c ****   s_command.Address           = ReadAddr;
ARM GAS  C:\Users\Student\AppData\Local\Temp\ccbW8nln.s 			page 5


 204:Drivers/BSP/STM32746G-Discovery/stm32746g_discovery_qspi.c ****   s_command.AlternateByteMode = QSPI_ALTERNATE_BYTES_NONE;
 205:Drivers/BSP/STM32746G-Discovery/stm32746g_discovery_qspi.c ****   s_command.DataMode          = QSPI_DATA_4_LINES;
 206:Drivers/BSP/STM32746G-Discovery/stm32746g_discovery_qspi.c ****   s_command.DummyCycles       = N25Q128A_DUMMY_CYCLES_READ_QUAD;
 207:Drivers/BSP/STM32746G-Discovery/stm32746g_discovery_qspi.c ****   s_command.NbData            = Size;
 208:Drivers/BSP/STM32746G-Discovery/stm32746g_discovery_qspi.c ****   s_command.DdrMode           = QSPI_DDR_MODE_DISABLE;
 209:Drivers/BSP/STM32746G-Discovery/stm32746g_discovery_qspi.c ****   s_command.DdrHoldHalfCycle  = QSPI_DDR_HHC_ANALOG_DELAY;
 210:Drivers/BSP/STM32746G-Discovery/stm32746g_discovery_qspi.c ****   s_command.SIOOMode          = QSPI_SIOO_INST_EVERY_CMD;
 211:Drivers/BSP/STM32746G-Discovery/stm32746g_discovery_qspi.c ****   
 212:Drivers/BSP/STM32746G-Discovery/stm32746g_discovery_qspi.c ****   /* Configure the command */
 213:Drivers/BSP/STM32746G-Discovery/stm32746g_discovery_qspi.c ****   if (HAL_QSPI_Command(&QSPIHandle, &s_command, HAL_QPSI_TIMEOUT_DEFAULT_VALUE) != HAL_OK)
 214:Drivers/BSP/STM32746G-Discovery/stm32746g_discovery_qspi.c ****   {
 215:Drivers/BSP/STM32746G-Discovery/stm32746g_discovery_qspi.c ****     return QSPI_ERROR;
 216:Drivers/BSP/STM32746G-Discovery/stm32746g_discovery_qspi.c ****   }
 217:Drivers/BSP/STM32746G-Discovery/stm32746g_discovery_qspi.c ****   
 218:Drivers/BSP/STM32746G-Discovery/stm32746g_discovery_qspi.c ****   /* Set S# timing for Read command */
 219:Drivers/BSP/STM32746G-Discovery/stm32746g_discovery_qspi.c ****   MODIFY_REG(QSPIHandle.Instance->DCR, QUADSPI_DCR_CSHT, QSPI_CS_HIGH_TIME_3_CYCLE);
 220:Drivers/BSP/STM32746G-Discovery/stm32746g_discovery_qspi.c ****   
 221:Drivers/BSP/STM32746G-Discovery/stm32746g_discovery_qspi.c ****   /* Reception of the data */
 222:Drivers/BSP/STM32746G-Discovery/stm32746g_discovery_qspi.c ****   if (HAL_QSPI_Receive(&QSPIHandle, pData, HAL_QPSI_TIMEOUT_DEFAULT_VALUE) != HAL_OK)
 223:Drivers/BSP/STM32746G-Discovery/stm32746g_discovery_qspi.c ****   {
 224:Drivers/BSP/STM32746G-Discovery/stm32746g_discovery_qspi.c ****     return QSPI_ERROR;
 225:Drivers/BSP/STM32746G-Discovery/stm32746g_discovery_qspi.c ****   }
 226:Drivers/BSP/STM32746G-Discovery/stm32746g_discovery_qspi.c ****   
 227:Drivers/BSP/STM32746G-Discovery/stm32746g_discovery_qspi.c ****   /* Restore S# timing for nonRead commands */
 228:Drivers/BSP/STM32746G-Discovery/stm32746g_discovery_qspi.c ****   MODIFY_REG(QSPIHandle.Instance->DCR, QUADSPI_DCR_CSHT, QSPI_CS_HIGH_TIME_6_CYCLE);
 229:Drivers/BSP/STM32746G-Discovery/stm32746g_discovery_qspi.c **** 
 230:Drivers/BSP/STM32746G-Discovery/stm32746g_discovery_qspi.c ****   return QSPI_OK;
 231:Drivers/BSP/STM32746G-Discovery/stm32746g_discovery_qspi.c **** }
 232:Drivers/BSP/STM32746G-Discovery/stm32746g_discovery_qspi.c **** 
 233:Drivers/BSP/STM32746G-Discovery/stm32746g_discovery_qspi.c **** /**
 234:Drivers/BSP/STM32746G-Discovery/stm32746g_discovery_qspi.c ****   * @brief  Writes an amount of data to the QSPI memory.
 235:Drivers/BSP/STM32746G-Discovery/stm32746g_discovery_qspi.c ****   * @param  pData: Pointer to data to be written
 236:Drivers/BSP/STM32746G-Discovery/stm32746g_discovery_qspi.c ****   * @param  WriteAddr: Write start address
 237:Drivers/BSP/STM32746G-Discovery/stm32746g_discovery_qspi.c ****   * @param  Size: Size of data to write    
 238:Drivers/BSP/STM32746G-Discovery/stm32746g_discovery_qspi.c ****   * @retval QSPI memory status
 239:Drivers/BSP/STM32746G-Discovery/stm32746g_discovery_qspi.c ****   */
 240:Drivers/BSP/STM32746G-Discovery/stm32746g_discovery_qspi.c **** uint8_t BSP_QSPI_Write(uint8_t* pData, uint32_t WriteAddr, uint32_t Size)
 241:Drivers/BSP/STM32746G-Discovery/stm32746g_discovery_qspi.c **** {
 242:Drivers/BSP/STM32746G-Discovery/stm32746g_discovery_qspi.c ****   QSPI_CommandTypeDef s_command;
 243:Drivers/BSP/STM32746G-Discovery/stm32746g_discovery_qspi.c ****   uint32_t end_addr, current_size, current_addr;
 244:Drivers/BSP/STM32746G-Discovery/stm32746g_discovery_qspi.c **** 
 245:Drivers/BSP/STM32746G-Discovery/stm32746g_discovery_qspi.c ****   /* Calculation of the size between the write address and the end of the page */
 246:Drivers/BSP/STM32746G-Discovery/stm32746g_discovery_qspi.c ****   current_size = N25Q128A_PAGE_SIZE - (WriteAddr % N25Q128A_PAGE_SIZE);
 247:Drivers/BSP/STM32746G-Discovery/stm32746g_discovery_qspi.c **** 
 248:Drivers/BSP/STM32746G-Discovery/stm32746g_discovery_qspi.c ****   /* Check if the size of the data is less than the remaining place in the page */
 249:Drivers/BSP/STM32746G-Discovery/stm32746g_discovery_qspi.c ****   if (current_size > Size)
 250:Drivers/BSP/STM32746G-Discovery/stm32746g_discovery_qspi.c ****   {
 251:Drivers/BSP/STM32746G-Discovery/stm32746g_discovery_qspi.c ****     current_size = Size;
 252:Drivers/BSP/STM32746G-Discovery/stm32746g_discovery_qspi.c ****   }
 253:Drivers/BSP/STM32746G-Discovery/stm32746g_discovery_qspi.c **** 
 254:Drivers/BSP/STM32746G-Discovery/stm32746g_discovery_qspi.c ****   /* Initialize the adress variables */
 255:Drivers/BSP/STM32746G-Discovery/stm32746g_discovery_qspi.c ****   current_addr = WriteAddr;
 256:Drivers/BSP/STM32746G-Discovery/stm32746g_discovery_qspi.c ****   end_addr = WriteAddr + Size;
 257:Drivers/BSP/STM32746G-Discovery/stm32746g_discovery_qspi.c **** 
 258:Drivers/BSP/STM32746G-Discovery/stm32746g_discovery_qspi.c ****   /* Initialize the program command */
 259:Drivers/BSP/STM32746G-Discovery/stm32746g_discovery_qspi.c ****   s_command.InstructionMode   = QSPI_INSTRUCTION_1_LINE;
 260:Drivers/BSP/STM32746G-Discovery/stm32746g_discovery_qspi.c ****   s_command.Instruction       = EXT_QUAD_IN_FAST_PROG_CMD;
ARM GAS  C:\Users\Student\AppData\Local\Temp\ccbW8nln.s 			page 6


 261:Drivers/BSP/STM32746G-Discovery/stm32746g_discovery_qspi.c ****   s_command.AddressMode       = QSPI_ADDRESS_4_LINES;
 262:Drivers/BSP/STM32746G-Discovery/stm32746g_discovery_qspi.c ****   s_command.AddressSize       = QSPI_ADDRESS_24_BITS;
 263:Drivers/BSP/STM32746G-Discovery/stm32746g_discovery_qspi.c ****   s_command.AlternateByteMode = QSPI_ALTERNATE_BYTES_NONE;
 264:Drivers/BSP/STM32746G-Discovery/stm32746g_discovery_qspi.c ****   s_command.DataMode          = QSPI_DATA_4_LINES;
 265:Drivers/BSP/STM32746G-Discovery/stm32746g_discovery_qspi.c ****   s_command.DummyCycles       = 0;
 266:Drivers/BSP/STM32746G-Discovery/stm32746g_discovery_qspi.c ****   s_command.DdrMode           = QSPI_DDR_MODE_DISABLE;
 267:Drivers/BSP/STM32746G-Discovery/stm32746g_discovery_qspi.c ****   s_command.DdrHoldHalfCycle  = QSPI_DDR_HHC_ANALOG_DELAY;
 268:Drivers/BSP/STM32746G-Discovery/stm32746g_discovery_qspi.c ****   s_command.SIOOMode          = QSPI_SIOO_INST_EVERY_CMD;
 269:Drivers/BSP/STM32746G-Discovery/stm32746g_discovery_qspi.c ****   
 270:Drivers/BSP/STM32746G-Discovery/stm32746g_discovery_qspi.c ****   /* Perform the write page by page */
 271:Drivers/BSP/STM32746G-Discovery/stm32746g_discovery_qspi.c ****   do
 272:Drivers/BSP/STM32746G-Discovery/stm32746g_discovery_qspi.c ****   {
 273:Drivers/BSP/STM32746G-Discovery/stm32746g_discovery_qspi.c ****     s_command.Address = current_addr;
 274:Drivers/BSP/STM32746G-Discovery/stm32746g_discovery_qspi.c ****     s_command.NbData  = current_size;
 275:Drivers/BSP/STM32746G-Discovery/stm32746g_discovery_qspi.c **** 
 276:Drivers/BSP/STM32746G-Discovery/stm32746g_discovery_qspi.c ****     /* Enable write operations */
 277:Drivers/BSP/STM32746G-Discovery/stm32746g_discovery_qspi.c ****     if (QSPI_WriteEnable(&QSPIHandle) != QSPI_OK)
 278:Drivers/BSP/STM32746G-Discovery/stm32746g_discovery_qspi.c ****     {
 279:Drivers/BSP/STM32746G-Discovery/stm32746g_discovery_qspi.c ****       return QSPI_ERROR;
 280:Drivers/BSP/STM32746G-Discovery/stm32746g_discovery_qspi.c ****     }
 281:Drivers/BSP/STM32746G-Discovery/stm32746g_discovery_qspi.c ****     
 282:Drivers/BSP/STM32746G-Discovery/stm32746g_discovery_qspi.c ****     /* Configure the command */
 283:Drivers/BSP/STM32746G-Discovery/stm32746g_discovery_qspi.c ****     if (HAL_QSPI_Command(&QSPIHandle, &s_command, HAL_QPSI_TIMEOUT_DEFAULT_VALUE) != HAL_OK)
 284:Drivers/BSP/STM32746G-Discovery/stm32746g_discovery_qspi.c ****     {
 285:Drivers/BSP/STM32746G-Discovery/stm32746g_discovery_qspi.c ****       return QSPI_ERROR;
 286:Drivers/BSP/STM32746G-Discovery/stm32746g_discovery_qspi.c ****     }
 287:Drivers/BSP/STM32746G-Discovery/stm32746g_discovery_qspi.c ****     
 288:Drivers/BSP/STM32746G-Discovery/stm32746g_discovery_qspi.c ****     /* Transmission of the data */
 289:Drivers/BSP/STM32746G-Discovery/stm32746g_discovery_qspi.c ****     if (HAL_QSPI_Transmit(&QSPIHandle, pData, HAL_QPSI_TIMEOUT_DEFAULT_VALUE) != HAL_OK)
 290:Drivers/BSP/STM32746G-Discovery/stm32746g_discovery_qspi.c ****     {
 291:Drivers/BSP/STM32746G-Discovery/stm32746g_discovery_qspi.c ****       return QSPI_ERROR;
 292:Drivers/BSP/STM32746G-Discovery/stm32746g_discovery_qspi.c ****     }
 293:Drivers/BSP/STM32746G-Discovery/stm32746g_discovery_qspi.c ****     
 294:Drivers/BSP/STM32746G-Discovery/stm32746g_discovery_qspi.c ****     /* Configure automatic polling mode to wait for end of program */  
 295:Drivers/BSP/STM32746G-Discovery/stm32746g_discovery_qspi.c ****     if (QSPI_AutoPollingMemReady(&QSPIHandle, HAL_QPSI_TIMEOUT_DEFAULT_VALUE) != QSPI_OK)
 296:Drivers/BSP/STM32746G-Discovery/stm32746g_discovery_qspi.c ****     {
 297:Drivers/BSP/STM32746G-Discovery/stm32746g_discovery_qspi.c ****       return QSPI_ERROR;
 298:Drivers/BSP/STM32746G-Discovery/stm32746g_discovery_qspi.c ****     }
 299:Drivers/BSP/STM32746G-Discovery/stm32746g_discovery_qspi.c ****     
 300:Drivers/BSP/STM32746G-Discovery/stm32746g_discovery_qspi.c ****     /* Update the address and size variables for next page programming */
 301:Drivers/BSP/STM32746G-Discovery/stm32746g_discovery_qspi.c ****     current_addr += current_size;
 302:Drivers/BSP/STM32746G-Discovery/stm32746g_discovery_qspi.c ****     pData += current_size;
 303:Drivers/BSP/STM32746G-Discovery/stm32746g_discovery_qspi.c ****     current_size = ((current_addr + N25Q128A_PAGE_SIZE) > end_addr) ? (end_addr - current_addr) : N
 304:Drivers/BSP/STM32746G-Discovery/stm32746g_discovery_qspi.c ****   } while (current_addr < end_addr);
 305:Drivers/BSP/STM32746G-Discovery/stm32746g_discovery_qspi.c ****   
 306:Drivers/BSP/STM32746G-Discovery/stm32746g_discovery_qspi.c ****   return QSPI_OK;
 307:Drivers/BSP/STM32746G-Discovery/stm32746g_discovery_qspi.c **** }
 308:Drivers/BSP/STM32746G-Discovery/stm32746g_discovery_qspi.c **** 
 309:Drivers/BSP/STM32746G-Discovery/stm32746g_discovery_qspi.c **** /**
 310:Drivers/BSP/STM32746G-Discovery/stm32746g_discovery_qspi.c ****   * @brief  Erases the specified block of the QSPI memory. 
 311:Drivers/BSP/STM32746G-Discovery/stm32746g_discovery_qspi.c ****   * @param  BlockAddress: Block address to erase  
 312:Drivers/BSP/STM32746G-Discovery/stm32746g_discovery_qspi.c ****   * @retval QSPI memory status
 313:Drivers/BSP/STM32746G-Discovery/stm32746g_discovery_qspi.c ****   */
 314:Drivers/BSP/STM32746G-Discovery/stm32746g_discovery_qspi.c **** uint8_t BSP_QSPI_Erase_Block(uint32_t BlockAddress)
 315:Drivers/BSP/STM32746G-Discovery/stm32746g_discovery_qspi.c **** {
 316:Drivers/BSP/STM32746G-Discovery/stm32746g_discovery_qspi.c ****   QSPI_CommandTypeDef s_command;
 317:Drivers/BSP/STM32746G-Discovery/stm32746g_discovery_qspi.c **** 
ARM GAS  C:\Users\Student\AppData\Local\Temp\ccbW8nln.s 			page 7


 318:Drivers/BSP/STM32746G-Discovery/stm32746g_discovery_qspi.c ****   /* Initialize the erase command */
 319:Drivers/BSP/STM32746G-Discovery/stm32746g_discovery_qspi.c ****   s_command.InstructionMode   = QSPI_INSTRUCTION_1_LINE;
 320:Drivers/BSP/STM32746G-Discovery/stm32746g_discovery_qspi.c ****   s_command.Instruction       = SUBSECTOR_ERASE_CMD;
 321:Drivers/BSP/STM32746G-Discovery/stm32746g_discovery_qspi.c ****   s_command.AddressMode       = QSPI_ADDRESS_1_LINE;
 322:Drivers/BSP/STM32746G-Discovery/stm32746g_discovery_qspi.c ****   s_command.AddressSize       = QSPI_ADDRESS_24_BITS;
 323:Drivers/BSP/STM32746G-Discovery/stm32746g_discovery_qspi.c ****   s_command.Address           = BlockAddress;
 324:Drivers/BSP/STM32746G-Discovery/stm32746g_discovery_qspi.c ****   s_command.AlternateByteMode = QSPI_ALTERNATE_BYTES_NONE;
 325:Drivers/BSP/STM32746G-Discovery/stm32746g_discovery_qspi.c ****   s_command.DataMode          = QSPI_DATA_NONE;
 326:Drivers/BSP/STM32746G-Discovery/stm32746g_discovery_qspi.c ****   s_command.DummyCycles       = 0;
 327:Drivers/BSP/STM32746G-Discovery/stm32746g_discovery_qspi.c ****   s_command.DdrMode           = QSPI_DDR_MODE_DISABLE;
 328:Drivers/BSP/STM32746G-Discovery/stm32746g_discovery_qspi.c ****   s_command.DdrHoldHalfCycle  = QSPI_DDR_HHC_ANALOG_DELAY;
 329:Drivers/BSP/STM32746G-Discovery/stm32746g_discovery_qspi.c ****   s_command.SIOOMode          = QSPI_SIOO_INST_EVERY_CMD;
 330:Drivers/BSP/STM32746G-Discovery/stm32746g_discovery_qspi.c **** 
 331:Drivers/BSP/STM32746G-Discovery/stm32746g_discovery_qspi.c ****   /* Enable write operations */
 332:Drivers/BSP/STM32746G-Discovery/stm32746g_discovery_qspi.c ****   if (QSPI_WriteEnable(&QSPIHandle) != QSPI_OK)
 333:Drivers/BSP/STM32746G-Discovery/stm32746g_discovery_qspi.c ****   {
 334:Drivers/BSP/STM32746G-Discovery/stm32746g_discovery_qspi.c ****     return QSPI_ERROR;
 335:Drivers/BSP/STM32746G-Discovery/stm32746g_discovery_qspi.c ****   }
 336:Drivers/BSP/STM32746G-Discovery/stm32746g_discovery_qspi.c **** 
 337:Drivers/BSP/STM32746G-Discovery/stm32746g_discovery_qspi.c ****   /* Send the command */
 338:Drivers/BSP/STM32746G-Discovery/stm32746g_discovery_qspi.c ****   if (HAL_QSPI_Command(&QSPIHandle, &s_command, HAL_QPSI_TIMEOUT_DEFAULT_VALUE) != HAL_OK)
 339:Drivers/BSP/STM32746G-Discovery/stm32746g_discovery_qspi.c ****   {
 340:Drivers/BSP/STM32746G-Discovery/stm32746g_discovery_qspi.c ****     return QSPI_ERROR;
 341:Drivers/BSP/STM32746G-Discovery/stm32746g_discovery_qspi.c ****   }
 342:Drivers/BSP/STM32746G-Discovery/stm32746g_discovery_qspi.c ****   
 343:Drivers/BSP/STM32746G-Discovery/stm32746g_discovery_qspi.c ****   /* Configure automatic polling mode to wait for end of erase */  
 344:Drivers/BSP/STM32746G-Discovery/stm32746g_discovery_qspi.c ****   if (QSPI_AutoPollingMemReady(&QSPIHandle, N25Q128A_SUBSECTOR_ERASE_MAX_TIME) != QSPI_OK)
 345:Drivers/BSP/STM32746G-Discovery/stm32746g_discovery_qspi.c ****   {
 346:Drivers/BSP/STM32746G-Discovery/stm32746g_discovery_qspi.c ****     return QSPI_ERROR;
 347:Drivers/BSP/STM32746G-Discovery/stm32746g_discovery_qspi.c ****   }
 348:Drivers/BSP/STM32746G-Discovery/stm32746g_discovery_qspi.c **** 
 349:Drivers/BSP/STM32746G-Discovery/stm32746g_discovery_qspi.c ****   return QSPI_OK;
 350:Drivers/BSP/STM32746G-Discovery/stm32746g_discovery_qspi.c **** }
 351:Drivers/BSP/STM32746G-Discovery/stm32746g_discovery_qspi.c **** 
 352:Drivers/BSP/STM32746G-Discovery/stm32746g_discovery_qspi.c **** /**
 353:Drivers/BSP/STM32746G-Discovery/stm32746g_discovery_qspi.c ****   * @brief  Erases the entire QSPI memory.
 354:Drivers/BSP/STM32746G-Discovery/stm32746g_discovery_qspi.c ****   * @retval QSPI memory status
 355:Drivers/BSP/STM32746G-Discovery/stm32746g_discovery_qspi.c ****   */
 356:Drivers/BSP/STM32746G-Discovery/stm32746g_discovery_qspi.c **** uint8_t BSP_QSPI_Erase_Chip(void)
 357:Drivers/BSP/STM32746G-Discovery/stm32746g_discovery_qspi.c **** {
 358:Drivers/BSP/STM32746G-Discovery/stm32746g_discovery_qspi.c ****   QSPI_CommandTypeDef s_command;
 359:Drivers/BSP/STM32746G-Discovery/stm32746g_discovery_qspi.c **** 
 360:Drivers/BSP/STM32746G-Discovery/stm32746g_discovery_qspi.c ****   /* Initialize the erase command */
 361:Drivers/BSP/STM32746G-Discovery/stm32746g_discovery_qspi.c ****   s_command.InstructionMode   = QSPI_INSTRUCTION_1_LINE;
 362:Drivers/BSP/STM32746G-Discovery/stm32746g_discovery_qspi.c ****   s_command.Instruction       = BULK_ERASE_CMD;
 363:Drivers/BSP/STM32746G-Discovery/stm32746g_discovery_qspi.c ****   s_command.AddressMode       = QSPI_ADDRESS_NONE;
 364:Drivers/BSP/STM32746G-Discovery/stm32746g_discovery_qspi.c ****   s_command.AlternateByteMode = QSPI_ALTERNATE_BYTES_NONE;
 365:Drivers/BSP/STM32746G-Discovery/stm32746g_discovery_qspi.c ****   s_command.DataMode          = QSPI_DATA_NONE;
 366:Drivers/BSP/STM32746G-Discovery/stm32746g_discovery_qspi.c ****   s_command.DummyCycles       = 0;
 367:Drivers/BSP/STM32746G-Discovery/stm32746g_discovery_qspi.c ****   s_command.DdrMode           = QSPI_DDR_MODE_DISABLE;
 368:Drivers/BSP/STM32746G-Discovery/stm32746g_discovery_qspi.c ****   s_command.DdrHoldHalfCycle  = QSPI_DDR_HHC_ANALOG_DELAY;
 369:Drivers/BSP/STM32746G-Discovery/stm32746g_discovery_qspi.c ****   s_command.SIOOMode          = QSPI_SIOO_INST_EVERY_CMD;
 370:Drivers/BSP/STM32746G-Discovery/stm32746g_discovery_qspi.c **** 
 371:Drivers/BSP/STM32746G-Discovery/stm32746g_discovery_qspi.c ****   /* Enable write operations */
 372:Drivers/BSP/STM32746G-Discovery/stm32746g_discovery_qspi.c ****   if (QSPI_WriteEnable(&QSPIHandle) != QSPI_OK)
 373:Drivers/BSP/STM32746G-Discovery/stm32746g_discovery_qspi.c ****   {
 374:Drivers/BSP/STM32746G-Discovery/stm32746g_discovery_qspi.c ****     return QSPI_ERROR;
ARM GAS  C:\Users\Student\AppData\Local\Temp\ccbW8nln.s 			page 8


 375:Drivers/BSP/STM32746G-Discovery/stm32746g_discovery_qspi.c ****   }
 376:Drivers/BSP/STM32746G-Discovery/stm32746g_discovery_qspi.c **** 
 377:Drivers/BSP/STM32746G-Discovery/stm32746g_discovery_qspi.c ****   /* Send the command */
 378:Drivers/BSP/STM32746G-Discovery/stm32746g_discovery_qspi.c ****   if (HAL_QSPI_Command(&QSPIHandle, &s_command, HAL_QPSI_TIMEOUT_DEFAULT_VALUE) != HAL_OK)
 379:Drivers/BSP/STM32746G-Discovery/stm32746g_discovery_qspi.c ****   {
 380:Drivers/BSP/STM32746G-Discovery/stm32746g_discovery_qspi.c ****     return QSPI_ERROR;
 381:Drivers/BSP/STM32746G-Discovery/stm32746g_discovery_qspi.c ****   }
 382:Drivers/BSP/STM32746G-Discovery/stm32746g_discovery_qspi.c ****   
 383:Drivers/BSP/STM32746G-Discovery/stm32746g_discovery_qspi.c ****   /* Configure automatic polling mode to wait for end of erase */  
 384:Drivers/BSP/STM32746G-Discovery/stm32746g_discovery_qspi.c ****   if (QSPI_AutoPollingMemReady(&QSPIHandle, N25Q128A_BULK_ERASE_MAX_TIME) != QSPI_OK)
 385:Drivers/BSP/STM32746G-Discovery/stm32746g_discovery_qspi.c ****   {
 386:Drivers/BSP/STM32746G-Discovery/stm32746g_discovery_qspi.c ****     return QSPI_ERROR;
 387:Drivers/BSP/STM32746G-Discovery/stm32746g_discovery_qspi.c ****   }
 388:Drivers/BSP/STM32746G-Discovery/stm32746g_discovery_qspi.c **** 
 389:Drivers/BSP/STM32746G-Discovery/stm32746g_discovery_qspi.c ****   return QSPI_OK;
 390:Drivers/BSP/STM32746G-Discovery/stm32746g_discovery_qspi.c **** }
 391:Drivers/BSP/STM32746G-Discovery/stm32746g_discovery_qspi.c **** 
 392:Drivers/BSP/STM32746G-Discovery/stm32746g_discovery_qspi.c **** /**
 393:Drivers/BSP/STM32746G-Discovery/stm32746g_discovery_qspi.c ****   * @brief  Reads current status of the QSPI memory.
 394:Drivers/BSP/STM32746G-Discovery/stm32746g_discovery_qspi.c ****   * @retval QSPI memory status
 395:Drivers/BSP/STM32746G-Discovery/stm32746g_discovery_qspi.c ****   */
 396:Drivers/BSP/STM32746G-Discovery/stm32746g_discovery_qspi.c **** uint8_t BSP_QSPI_GetStatus(void)
 397:Drivers/BSP/STM32746G-Discovery/stm32746g_discovery_qspi.c **** {
 398:Drivers/BSP/STM32746G-Discovery/stm32746g_discovery_qspi.c ****   QSPI_CommandTypeDef s_command;
 399:Drivers/BSP/STM32746G-Discovery/stm32746g_discovery_qspi.c ****   uint8_t reg;
 400:Drivers/BSP/STM32746G-Discovery/stm32746g_discovery_qspi.c **** 
 401:Drivers/BSP/STM32746G-Discovery/stm32746g_discovery_qspi.c ****   /* Initialize the read flag status register command */
 402:Drivers/BSP/STM32746G-Discovery/stm32746g_discovery_qspi.c ****   s_command.InstructionMode   = QSPI_INSTRUCTION_1_LINE;
 403:Drivers/BSP/STM32746G-Discovery/stm32746g_discovery_qspi.c ****   s_command.Instruction       = READ_FLAG_STATUS_REG_CMD;
 404:Drivers/BSP/STM32746G-Discovery/stm32746g_discovery_qspi.c ****   s_command.AddressMode       = QSPI_ADDRESS_NONE;
 405:Drivers/BSP/STM32746G-Discovery/stm32746g_discovery_qspi.c ****   s_command.AlternateByteMode = QSPI_ALTERNATE_BYTES_NONE;
 406:Drivers/BSP/STM32746G-Discovery/stm32746g_discovery_qspi.c ****   s_command.DataMode          = QSPI_DATA_1_LINE;
 407:Drivers/BSP/STM32746G-Discovery/stm32746g_discovery_qspi.c ****   s_command.DummyCycles       = 0;
 408:Drivers/BSP/STM32746G-Discovery/stm32746g_discovery_qspi.c ****   s_command.NbData            = 1;
 409:Drivers/BSP/STM32746G-Discovery/stm32746g_discovery_qspi.c ****   s_command.DdrMode           = QSPI_DDR_MODE_DISABLE;
 410:Drivers/BSP/STM32746G-Discovery/stm32746g_discovery_qspi.c ****   s_command.DdrHoldHalfCycle  = QSPI_DDR_HHC_ANALOG_DELAY;
 411:Drivers/BSP/STM32746G-Discovery/stm32746g_discovery_qspi.c ****   s_command.SIOOMode          = QSPI_SIOO_INST_EVERY_CMD;
 412:Drivers/BSP/STM32746G-Discovery/stm32746g_discovery_qspi.c **** 
 413:Drivers/BSP/STM32746G-Discovery/stm32746g_discovery_qspi.c ****   /* Configure the command */
 414:Drivers/BSP/STM32746G-Discovery/stm32746g_discovery_qspi.c ****   if (HAL_QSPI_Command(&QSPIHandle, &s_command, HAL_QPSI_TIMEOUT_DEFAULT_VALUE) != HAL_OK)
 415:Drivers/BSP/STM32746G-Discovery/stm32746g_discovery_qspi.c ****   {
 416:Drivers/BSP/STM32746G-Discovery/stm32746g_discovery_qspi.c ****     return QSPI_ERROR;
 417:Drivers/BSP/STM32746G-Discovery/stm32746g_discovery_qspi.c ****   }
 418:Drivers/BSP/STM32746G-Discovery/stm32746g_discovery_qspi.c **** 
 419:Drivers/BSP/STM32746G-Discovery/stm32746g_discovery_qspi.c ****   /* Reception of the data */
 420:Drivers/BSP/STM32746G-Discovery/stm32746g_discovery_qspi.c ****   if (HAL_QSPI_Receive(&QSPIHandle, &reg, HAL_QPSI_TIMEOUT_DEFAULT_VALUE) != HAL_OK)
 421:Drivers/BSP/STM32746G-Discovery/stm32746g_discovery_qspi.c ****   {
 422:Drivers/BSP/STM32746G-Discovery/stm32746g_discovery_qspi.c ****     return QSPI_ERROR;
 423:Drivers/BSP/STM32746G-Discovery/stm32746g_discovery_qspi.c ****   }
 424:Drivers/BSP/STM32746G-Discovery/stm32746g_discovery_qspi.c ****   
 425:Drivers/BSP/STM32746G-Discovery/stm32746g_discovery_qspi.c ****   /* Check the value of the register */
 426:Drivers/BSP/STM32746G-Discovery/stm32746g_discovery_qspi.c ****   if ((reg & (N25Q128A_FSR_PRERR | N25Q128A_FSR_VPPERR | N25Q128A_FSR_PGERR | N25Q128A_FSR_ERERR)) 
 427:Drivers/BSP/STM32746G-Discovery/stm32746g_discovery_qspi.c ****   {
 428:Drivers/BSP/STM32746G-Discovery/stm32746g_discovery_qspi.c ****     return QSPI_ERROR;
 429:Drivers/BSP/STM32746G-Discovery/stm32746g_discovery_qspi.c ****   }
 430:Drivers/BSP/STM32746G-Discovery/stm32746g_discovery_qspi.c ****   else if ((reg & (N25Q128A_FSR_PGSUS | N25Q128A_FSR_ERSUS)) != 0)
 431:Drivers/BSP/STM32746G-Discovery/stm32746g_discovery_qspi.c ****   {
ARM GAS  C:\Users\Student\AppData\Local\Temp\ccbW8nln.s 			page 9


 432:Drivers/BSP/STM32746G-Discovery/stm32746g_discovery_qspi.c ****     return QSPI_SUSPENDED;
 433:Drivers/BSP/STM32746G-Discovery/stm32746g_discovery_qspi.c ****   }
 434:Drivers/BSP/STM32746G-Discovery/stm32746g_discovery_qspi.c ****   else if ((reg & N25Q128A_FSR_READY) != 0)
 435:Drivers/BSP/STM32746G-Discovery/stm32746g_discovery_qspi.c ****   {
 436:Drivers/BSP/STM32746G-Discovery/stm32746g_discovery_qspi.c ****     return QSPI_OK;
 437:Drivers/BSP/STM32746G-Discovery/stm32746g_discovery_qspi.c ****   }
 438:Drivers/BSP/STM32746G-Discovery/stm32746g_discovery_qspi.c ****   else
 439:Drivers/BSP/STM32746G-Discovery/stm32746g_discovery_qspi.c ****   {
 440:Drivers/BSP/STM32746G-Discovery/stm32746g_discovery_qspi.c ****     return QSPI_BUSY;
 441:Drivers/BSP/STM32746G-Discovery/stm32746g_discovery_qspi.c ****   }
 442:Drivers/BSP/STM32746G-Discovery/stm32746g_discovery_qspi.c **** }
 443:Drivers/BSP/STM32746G-Discovery/stm32746g_discovery_qspi.c **** 
 444:Drivers/BSP/STM32746G-Discovery/stm32746g_discovery_qspi.c **** /**
 445:Drivers/BSP/STM32746G-Discovery/stm32746g_discovery_qspi.c ****   * @brief  Return the configuration of the QSPI memory.
 446:Drivers/BSP/STM32746G-Discovery/stm32746g_discovery_qspi.c ****   * @param  pInfo: pointer on the configuration structure  
 447:Drivers/BSP/STM32746G-Discovery/stm32746g_discovery_qspi.c ****   * @retval QSPI memory status
 448:Drivers/BSP/STM32746G-Discovery/stm32746g_discovery_qspi.c ****   */
 449:Drivers/BSP/STM32746G-Discovery/stm32746g_discovery_qspi.c **** uint8_t BSP_QSPI_GetInfo(QSPI_Info* pInfo)
 450:Drivers/BSP/STM32746G-Discovery/stm32746g_discovery_qspi.c **** {
 451:Drivers/BSP/STM32746G-Discovery/stm32746g_discovery_qspi.c ****   /* Configure the structure with the memory configuration */
 452:Drivers/BSP/STM32746G-Discovery/stm32746g_discovery_qspi.c ****   pInfo->FlashSize          = N25Q128A_FLASH_SIZE;
 453:Drivers/BSP/STM32746G-Discovery/stm32746g_discovery_qspi.c ****   pInfo->EraseSectorSize    = N25Q128A_SUBSECTOR_SIZE;
 454:Drivers/BSP/STM32746G-Discovery/stm32746g_discovery_qspi.c ****   pInfo->EraseSectorsNumber = (N25Q128A_FLASH_SIZE/N25Q128A_SUBSECTOR_SIZE);
 455:Drivers/BSP/STM32746G-Discovery/stm32746g_discovery_qspi.c ****   pInfo->ProgPageSize       = N25Q128A_PAGE_SIZE;
 456:Drivers/BSP/STM32746G-Discovery/stm32746g_discovery_qspi.c ****   pInfo->ProgPagesNumber    = (N25Q128A_FLASH_SIZE/N25Q128A_PAGE_SIZE);
 457:Drivers/BSP/STM32746G-Discovery/stm32746g_discovery_qspi.c ****   
 458:Drivers/BSP/STM32746G-Discovery/stm32746g_discovery_qspi.c ****   return QSPI_OK;
 459:Drivers/BSP/STM32746G-Discovery/stm32746g_discovery_qspi.c **** }
 460:Drivers/BSP/STM32746G-Discovery/stm32746g_discovery_qspi.c **** 
 461:Drivers/BSP/STM32746G-Discovery/stm32746g_discovery_qspi.c **** /**
 462:Drivers/BSP/STM32746G-Discovery/stm32746g_discovery_qspi.c ****   * @brief  Configure the QSPI in memory-mapped mode
 463:Drivers/BSP/STM32746G-Discovery/stm32746g_discovery_qspi.c ****   * @retval QSPI memory status
 464:Drivers/BSP/STM32746G-Discovery/stm32746g_discovery_qspi.c ****   */
 465:Drivers/BSP/STM32746G-Discovery/stm32746g_discovery_qspi.c **** uint8_t BSP_QSPI_EnableMemoryMappedMode(void)
 466:Drivers/BSP/STM32746G-Discovery/stm32746g_discovery_qspi.c **** {
 467:Drivers/BSP/STM32746G-Discovery/stm32746g_discovery_qspi.c ****   QSPI_CommandTypeDef      s_command;
 468:Drivers/BSP/STM32746G-Discovery/stm32746g_discovery_qspi.c ****   QSPI_MemoryMappedTypeDef s_mem_mapped_cfg;
 469:Drivers/BSP/STM32746G-Discovery/stm32746g_discovery_qspi.c **** 
 470:Drivers/BSP/STM32746G-Discovery/stm32746g_discovery_qspi.c ****   /* Configure the command for the read instruction */
 471:Drivers/BSP/STM32746G-Discovery/stm32746g_discovery_qspi.c ****   s_command.InstructionMode   = QSPI_INSTRUCTION_1_LINE;
 472:Drivers/BSP/STM32746G-Discovery/stm32746g_discovery_qspi.c ****   s_command.Instruction       = QUAD_INOUT_FAST_READ_CMD;
 473:Drivers/BSP/STM32746G-Discovery/stm32746g_discovery_qspi.c ****   s_command.AddressMode       = QSPI_ADDRESS_4_LINES;
 474:Drivers/BSP/STM32746G-Discovery/stm32746g_discovery_qspi.c ****   s_command.AddressSize       = QSPI_ADDRESS_24_BITS;
 475:Drivers/BSP/STM32746G-Discovery/stm32746g_discovery_qspi.c ****   s_command.AlternateByteMode = QSPI_ALTERNATE_BYTES_NONE;
 476:Drivers/BSP/STM32746G-Discovery/stm32746g_discovery_qspi.c ****   s_command.DataMode          = QSPI_DATA_4_LINES;
 477:Drivers/BSP/STM32746G-Discovery/stm32746g_discovery_qspi.c ****   s_command.DummyCycles       = N25Q128A_DUMMY_CYCLES_READ_QUAD;
 478:Drivers/BSP/STM32746G-Discovery/stm32746g_discovery_qspi.c ****   s_command.DdrMode           = QSPI_DDR_MODE_DISABLE;
 479:Drivers/BSP/STM32746G-Discovery/stm32746g_discovery_qspi.c ****   s_command.DdrHoldHalfCycle  = QSPI_DDR_HHC_ANALOG_DELAY;
 480:Drivers/BSP/STM32746G-Discovery/stm32746g_discovery_qspi.c ****   s_command.SIOOMode          = QSPI_SIOO_INST_EVERY_CMD;
 481:Drivers/BSP/STM32746G-Discovery/stm32746g_discovery_qspi.c ****   
 482:Drivers/BSP/STM32746G-Discovery/stm32746g_discovery_qspi.c ****   /* Configure the memory mapped mode */
 483:Drivers/BSP/STM32746G-Discovery/stm32746g_discovery_qspi.c ****   s_mem_mapped_cfg.TimeOutActivation = QSPI_TIMEOUT_COUNTER_DISABLE;
 484:Drivers/BSP/STM32746G-Discovery/stm32746g_discovery_qspi.c ****   s_mem_mapped_cfg.TimeOutPeriod     = 0;
 485:Drivers/BSP/STM32746G-Discovery/stm32746g_discovery_qspi.c ****   
 486:Drivers/BSP/STM32746G-Discovery/stm32746g_discovery_qspi.c ****   if (HAL_QSPI_MemoryMapped(&QSPIHandle, &s_command, &s_mem_mapped_cfg) != HAL_OK)
 487:Drivers/BSP/STM32746G-Discovery/stm32746g_discovery_qspi.c ****   {
 488:Drivers/BSP/STM32746G-Discovery/stm32746g_discovery_qspi.c ****     return QSPI_ERROR;
ARM GAS  C:\Users\Student\AppData\Local\Temp\ccbW8nln.s 			page 10


 489:Drivers/BSP/STM32746G-Discovery/stm32746g_discovery_qspi.c ****   }
 490:Drivers/BSP/STM32746G-Discovery/stm32746g_discovery_qspi.c **** 
 491:Drivers/BSP/STM32746G-Discovery/stm32746g_discovery_qspi.c ****   return QSPI_OK;
 492:Drivers/BSP/STM32746G-Discovery/stm32746g_discovery_qspi.c **** }
 493:Drivers/BSP/STM32746G-Discovery/stm32746g_discovery_qspi.c **** 
 494:Drivers/BSP/STM32746G-Discovery/stm32746g_discovery_qspi.c **** /**
 495:Drivers/BSP/STM32746G-Discovery/stm32746g_discovery_qspi.c ****   * @}
 496:Drivers/BSP/STM32746G-Discovery/stm32746g_discovery_qspi.c ****   */
 497:Drivers/BSP/STM32746G-Discovery/stm32746g_discovery_qspi.c **** 
 498:Drivers/BSP/STM32746G-Discovery/stm32746g_discovery_qspi.c **** /** @addtogroup STM32746G_DISCOVERY_QSPI_Private_Functions
 499:Drivers/BSP/STM32746G-Discovery/stm32746g_discovery_qspi.c ****   * @{
 500:Drivers/BSP/STM32746G-Discovery/stm32746g_discovery_qspi.c ****   */ 
 501:Drivers/BSP/STM32746G-Discovery/stm32746g_discovery_qspi.c **** 
 502:Drivers/BSP/STM32746G-Discovery/stm32746g_discovery_qspi.c **** /**
 503:Drivers/BSP/STM32746G-Discovery/stm32746g_discovery_qspi.c ****   * @brief QSPI MSP Initialization
 504:Drivers/BSP/STM32746G-Discovery/stm32746g_discovery_qspi.c ****   *        This function configures the hardware resources used in this example:
 505:Drivers/BSP/STM32746G-Discovery/stm32746g_discovery_qspi.c ****   *           - Peripheral's clock enable
 506:Drivers/BSP/STM32746G-Discovery/stm32746g_discovery_qspi.c ****   *           - Peripheral's GPIO Configuration
 507:Drivers/BSP/STM32746G-Discovery/stm32746g_discovery_qspi.c ****   *           - NVIC configuration for QSPI interrupt
 508:Drivers/BSP/STM32746G-Discovery/stm32746g_discovery_qspi.c ****   * @retval None
 509:Drivers/BSP/STM32746G-Discovery/stm32746g_discovery_qspi.c ****   */
 510:Drivers/BSP/STM32746G-Discovery/stm32746g_discovery_qspi.c **** __weak void BSP_QSPI_MspInit(QSPI_HandleTypeDef *hqspi, void *Params)
 511:Drivers/BSP/STM32746G-Discovery/stm32746g_discovery_qspi.c **** {
 512:Drivers/BSP/STM32746G-Discovery/stm32746g_discovery_qspi.c ****   GPIO_InitTypeDef gpio_init_structure;
 513:Drivers/BSP/STM32746G-Discovery/stm32746g_discovery_qspi.c **** 
 514:Drivers/BSP/STM32746G-Discovery/stm32746g_discovery_qspi.c ****   /*##-1- Enable peripherals and GPIO Clocks #################################*/
 515:Drivers/BSP/STM32746G-Discovery/stm32746g_discovery_qspi.c ****   /* Enable the QuadSPI memory interface clock */
 516:Drivers/BSP/STM32746G-Discovery/stm32746g_discovery_qspi.c ****   QSPI_CLK_ENABLE();
 517:Drivers/BSP/STM32746G-Discovery/stm32746g_discovery_qspi.c ****   /* Reset the QuadSPI memory interface */
 518:Drivers/BSP/STM32746G-Discovery/stm32746g_discovery_qspi.c ****   QSPI_FORCE_RESET();
 519:Drivers/BSP/STM32746G-Discovery/stm32746g_discovery_qspi.c ****   QSPI_RELEASE_RESET();
 520:Drivers/BSP/STM32746G-Discovery/stm32746g_discovery_qspi.c ****   /* Enable GPIO clocks */
 521:Drivers/BSP/STM32746G-Discovery/stm32746g_discovery_qspi.c ****   QSPI_CS_GPIO_CLK_ENABLE();
 522:Drivers/BSP/STM32746G-Discovery/stm32746g_discovery_qspi.c ****   QSPI_CLK_GPIO_CLK_ENABLE();
 523:Drivers/BSP/STM32746G-Discovery/stm32746g_discovery_qspi.c ****   QSPI_D0_GPIO_CLK_ENABLE();
 524:Drivers/BSP/STM32746G-Discovery/stm32746g_discovery_qspi.c ****   QSPI_D1_GPIO_CLK_ENABLE();
 525:Drivers/BSP/STM32746G-Discovery/stm32746g_discovery_qspi.c ****   QSPI_D2_GPIO_CLK_ENABLE();
 526:Drivers/BSP/STM32746G-Discovery/stm32746g_discovery_qspi.c ****   QSPI_D3_GPIO_CLK_ENABLE();
 527:Drivers/BSP/STM32746G-Discovery/stm32746g_discovery_qspi.c **** 
 528:Drivers/BSP/STM32746G-Discovery/stm32746g_discovery_qspi.c ****   /*##-2- Configure peripheral GPIO ##########################################*/
 529:Drivers/BSP/STM32746G-Discovery/stm32746g_discovery_qspi.c ****   /* QSPI CS GPIO pin configuration  */
 530:Drivers/BSP/STM32746G-Discovery/stm32746g_discovery_qspi.c ****   gpio_init_structure.Pin       = QSPI_CS_PIN;
 531:Drivers/BSP/STM32746G-Discovery/stm32746g_discovery_qspi.c ****   gpio_init_structure.Mode      = GPIO_MODE_AF_PP;
 532:Drivers/BSP/STM32746G-Discovery/stm32746g_discovery_qspi.c ****   gpio_init_structure.Pull      = GPIO_PULLUP;
 533:Drivers/BSP/STM32746G-Discovery/stm32746g_discovery_qspi.c ****   gpio_init_structure.Speed     = GPIO_SPEED_HIGH;
 534:Drivers/BSP/STM32746G-Discovery/stm32746g_discovery_qspi.c ****   gpio_init_structure.Alternate = GPIO_AF10_QUADSPI;
 535:Drivers/BSP/STM32746G-Discovery/stm32746g_discovery_qspi.c ****   HAL_GPIO_Init(QSPI_CS_GPIO_PORT, &gpio_init_structure);
 536:Drivers/BSP/STM32746G-Discovery/stm32746g_discovery_qspi.c **** 
 537:Drivers/BSP/STM32746G-Discovery/stm32746g_discovery_qspi.c ****   /* QSPI CLK GPIO pin configuration  */
 538:Drivers/BSP/STM32746G-Discovery/stm32746g_discovery_qspi.c ****   gpio_init_structure.Pin       = QSPI_CLK_PIN;
 539:Drivers/BSP/STM32746G-Discovery/stm32746g_discovery_qspi.c ****   gpio_init_structure.Pull      = GPIO_NOPULL;
 540:Drivers/BSP/STM32746G-Discovery/stm32746g_discovery_qspi.c ****   gpio_init_structure.Alternate = GPIO_AF9_QUADSPI;
 541:Drivers/BSP/STM32746G-Discovery/stm32746g_discovery_qspi.c ****   HAL_GPIO_Init(QSPI_CLK_GPIO_PORT, &gpio_init_structure);
 542:Drivers/BSP/STM32746G-Discovery/stm32746g_discovery_qspi.c **** 
 543:Drivers/BSP/STM32746G-Discovery/stm32746g_discovery_qspi.c ****   /* QSPI D0 GPIO pin configuration  */
 544:Drivers/BSP/STM32746G-Discovery/stm32746g_discovery_qspi.c ****   gpio_init_structure.Pin       = QSPI_D0_PIN;
 545:Drivers/BSP/STM32746G-Discovery/stm32746g_discovery_qspi.c ****   gpio_init_structure.Alternate = GPIO_AF9_QUADSPI;
ARM GAS  C:\Users\Student\AppData\Local\Temp\ccbW8nln.s 			page 11


 546:Drivers/BSP/STM32746G-Discovery/stm32746g_discovery_qspi.c ****   HAL_GPIO_Init(QSPI_D0_GPIO_PORT, &gpio_init_structure);
 547:Drivers/BSP/STM32746G-Discovery/stm32746g_discovery_qspi.c **** 
 548:Drivers/BSP/STM32746G-Discovery/stm32746g_discovery_qspi.c ****   /* QSPI D1 GPIO pin configuration  */
 549:Drivers/BSP/STM32746G-Discovery/stm32746g_discovery_qspi.c ****   gpio_init_structure.Pin       = QSPI_D1_PIN;
 550:Drivers/BSP/STM32746G-Discovery/stm32746g_discovery_qspi.c ****   gpio_init_structure.Alternate = GPIO_AF9_QUADSPI;
 551:Drivers/BSP/STM32746G-Discovery/stm32746g_discovery_qspi.c ****   HAL_GPIO_Init(QSPI_D1_GPIO_PORT, &gpio_init_structure);
 552:Drivers/BSP/STM32746G-Discovery/stm32746g_discovery_qspi.c **** 
 553:Drivers/BSP/STM32746G-Discovery/stm32746g_discovery_qspi.c ****   /* QSPI D2 GPIO pin configuration  */
 554:Drivers/BSP/STM32746G-Discovery/stm32746g_discovery_qspi.c ****   gpio_init_structure.Pin       = QSPI_D2_PIN;
 555:Drivers/BSP/STM32746G-Discovery/stm32746g_discovery_qspi.c ****   gpio_init_structure.Alternate = GPIO_AF9_QUADSPI;
 556:Drivers/BSP/STM32746G-Discovery/stm32746g_discovery_qspi.c ****   HAL_GPIO_Init(QSPI_D2_GPIO_PORT, &gpio_init_structure);
 557:Drivers/BSP/STM32746G-Discovery/stm32746g_discovery_qspi.c **** 
 558:Drivers/BSP/STM32746G-Discovery/stm32746g_discovery_qspi.c ****   /* QSPI D3 GPIO pin configuration  */
 559:Drivers/BSP/STM32746G-Discovery/stm32746g_discovery_qspi.c ****   gpio_init_structure.Pin       = QSPI_D3_PIN;
 560:Drivers/BSP/STM32746G-Discovery/stm32746g_discovery_qspi.c ****   gpio_init_structure.Alternate = GPIO_AF9_QUADSPI;
 561:Drivers/BSP/STM32746G-Discovery/stm32746g_discovery_qspi.c ****   HAL_GPIO_Init(QSPI_D3_GPIO_PORT, &gpio_init_structure);
 562:Drivers/BSP/STM32746G-Discovery/stm32746g_discovery_qspi.c **** 
 563:Drivers/BSP/STM32746G-Discovery/stm32746g_discovery_qspi.c ****   /*##-3- Configure the NVIC for QSPI #########################################*/
 564:Drivers/BSP/STM32746G-Discovery/stm32746g_discovery_qspi.c ****   /* NVIC configuration for QSPI interrupt */
 565:Drivers/BSP/STM32746G-Discovery/stm32746g_discovery_qspi.c ****   HAL_NVIC_SetPriority(QUADSPI_IRQn, 0x0F, 0);
 566:Drivers/BSP/STM32746G-Discovery/stm32746g_discovery_qspi.c ****   HAL_NVIC_EnableIRQ(QUADSPI_IRQn);
 567:Drivers/BSP/STM32746G-Discovery/stm32746g_discovery_qspi.c **** }
 568:Drivers/BSP/STM32746G-Discovery/stm32746g_discovery_qspi.c **** 
 569:Drivers/BSP/STM32746G-Discovery/stm32746g_discovery_qspi.c **** /**
 570:Drivers/BSP/STM32746G-Discovery/stm32746g_discovery_qspi.c ****   * @brief QSPI MSP De-Initialization
 571:Drivers/BSP/STM32746G-Discovery/stm32746g_discovery_qspi.c ****   *        This function frees the hardware resources used in this example:
 572:Drivers/BSP/STM32746G-Discovery/stm32746g_discovery_qspi.c ****   *          - Disable the Peripheral's clock
 573:Drivers/BSP/STM32746G-Discovery/stm32746g_discovery_qspi.c ****   *          - Revert GPIO and NVIC configuration to their default state
 574:Drivers/BSP/STM32746G-Discovery/stm32746g_discovery_qspi.c ****   * @retval None
 575:Drivers/BSP/STM32746G-Discovery/stm32746g_discovery_qspi.c ****   */
 576:Drivers/BSP/STM32746G-Discovery/stm32746g_discovery_qspi.c **** __weak void BSP_QSPI_MspDeInit(QSPI_HandleTypeDef *hqspi, void *Params)
 577:Drivers/BSP/STM32746G-Discovery/stm32746g_discovery_qspi.c **** {
 578:Drivers/BSP/STM32746G-Discovery/stm32746g_discovery_qspi.c ****   /*##-1- Disable the NVIC for QSPI ###########################################*/
 579:Drivers/BSP/STM32746G-Discovery/stm32746g_discovery_qspi.c ****   HAL_NVIC_DisableIRQ(QUADSPI_IRQn);
 580:Drivers/BSP/STM32746G-Discovery/stm32746g_discovery_qspi.c **** 
 581:Drivers/BSP/STM32746G-Discovery/stm32746g_discovery_qspi.c ****   /*##-2- Disable peripherals and GPIO Clocks ################################*/
 582:Drivers/BSP/STM32746G-Discovery/stm32746g_discovery_qspi.c ****   /* De-Configure QSPI pins */
 583:Drivers/BSP/STM32746G-Discovery/stm32746g_discovery_qspi.c ****   HAL_GPIO_DeInit(QSPI_CS_GPIO_PORT, QSPI_CS_PIN);
 584:Drivers/BSP/STM32746G-Discovery/stm32746g_discovery_qspi.c ****   HAL_GPIO_DeInit(QSPI_CLK_GPIO_PORT, QSPI_CLK_PIN);
 585:Drivers/BSP/STM32746G-Discovery/stm32746g_discovery_qspi.c ****   HAL_GPIO_DeInit(QSPI_D0_GPIO_PORT, QSPI_D0_PIN);
 586:Drivers/BSP/STM32746G-Discovery/stm32746g_discovery_qspi.c ****   HAL_GPIO_DeInit(QSPI_D1_GPIO_PORT, QSPI_D1_PIN);
 587:Drivers/BSP/STM32746G-Discovery/stm32746g_discovery_qspi.c ****   HAL_GPIO_DeInit(QSPI_D2_GPIO_PORT, QSPI_D2_PIN);
 588:Drivers/BSP/STM32746G-Discovery/stm32746g_discovery_qspi.c ****   HAL_GPIO_DeInit(QSPI_D3_GPIO_PORT, QSPI_D3_PIN);
 589:Drivers/BSP/STM32746G-Discovery/stm32746g_discovery_qspi.c **** 
 590:Drivers/BSP/STM32746G-Discovery/stm32746g_discovery_qspi.c ****   /*##-3- Reset peripherals ##################################################*/
 591:Drivers/BSP/STM32746G-Discovery/stm32746g_discovery_qspi.c ****   /* Reset the QuadSPI memory interface */
 592:Drivers/BSP/STM32746G-Discovery/stm32746g_discovery_qspi.c ****   QSPI_FORCE_RESET();
 593:Drivers/BSP/STM32746G-Discovery/stm32746g_discovery_qspi.c ****   QSPI_RELEASE_RESET();
 594:Drivers/BSP/STM32746G-Discovery/stm32746g_discovery_qspi.c **** 
 595:Drivers/BSP/STM32746G-Discovery/stm32746g_discovery_qspi.c ****   /* Disable the QuadSPI memory interface clock */
 596:Drivers/BSP/STM32746G-Discovery/stm32746g_discovery_qspi.c ****   QSPI_CLK_DISABLE();
 597:Drivers/BSP/STM32746G-Discovery/stm32746g_discovery_qspi.c **** }
 598:Drivers/BSP/STM32746G-Discovery/stm32746g_discovery_qspi.c **** 
 599:Drivers/BSP/STM32746G-Discovery/stm32746g_discovery_qspi.c **** /**
 600:Drivers/BSP/STM32746G-Discovery/stm32746g_discovery_qspi.c ****   * @brief  This function reset the QSPI memory.
 601:Drivers/BSP/STM32746G-Discovery/stm32746g_discovery_qspi.c ****   * @param  hqspi: QSPI handle
 602:Drivers/BSP/STM32746G-Discovery/stm32746g_discovery_qspi.c ****   * @retval None
ARM GAS  C:\Users\Student\AppData\Local\Temp\ccbW8nln.s 			page 12


 603:Drivers/BSP/STM32746G-Discovery/stm32746g_discovery_qspi.c ****   */
 604:Drivers/BSP/STM32746G-Discovery/stm32746g_discovery_qspi.c **** static uint8_t QSPI_ResetMemory(QSPI_HandleTypeDef *hqspi)
 605:Drivers/BSP/STM32746G-Discovery/stm32746g_discovery_qspi.c **** {
 606:Drivers/BSP/STM32746G-Discovery/stm32746g_discovery_qspi.c ****   QSPI_CommandTypeDef s_command;
 607:Drivers/BSP/STM32746G-Discovery/stm32746g_discovery_qspi.c **** 
 608:Drivers/BSP/STM32746G-Discovery/stm32746g_discovery_qspi.c ****   /* Initialize the reset enable command */
 609:Drivers/BSP/STM32746G-Discovery/stm32746g_discovery_qspi.c ****   s_command.InstructionMode   = QSPI_INSTRUCTION_1_LINE;
 610:Drivers/BSP/STM32746G-Discovery/stm32746g_discovery_qspi.c ****   s_command.Instruction       = RESET_ENABLE_CMD;
 611:Drivers/BSP/STM32746G-Discovery/stm32746g_discovery_qspi.c ****   s_command.AddressMode       = QSPI_ADDRESS_NONE;
 612:Drivers/BSP/STM32746G-Discovery/stm32746g_discovery_qspi.c ****   s_command.AlternateByteMode = QSPI_ALTERNATE_BYTES_NONE;
 613:Drivers/BSP/STM32746G-Discovery/stm32746g_discovery_qspi.c ****   s_command.DataMode          = QSPI_DATA_NONE;
 614:Drivers/BSP/STM32746G-Discovery/stm32746g_discovery_qspi.c ****   s_command.DummyCycles       = 0;
 615:Drivers/BSP/STM32746G-Discovery/stm32746g_discovery_qspi.c ****   s_command.DdrMode           = QSPI_DDR_MODE_DISABLE;
 616:Drivers/BSP/STM32746G-Discovery/stm32746g_discovery_qspi.c ****   s_command.DdrHoldHalfCycle  = QSPI_DDR_HHC_ANALOG_DELAY;
 617:Drivers/BSP/STM32746G-Discovery/stm32746g_discovery_qspi.c ****   s_command.SIOOMode          = QSPI_SIOO_INST_EVERY_CMD;
 618:Drivers/BSP/STM32746G-Discovery/stm32746g_discovery_qspi.c **** 
 619:Drivers/BSP/STM32746G-Discovery/stm32746g_discovery_qspi.c ****   /* Send the command */
 620:Drivers/BSP/STM32746G-Discovery/stm32746g_discovery_qspi.c ****   if (HAL_QSPI_Command(hqspi, &s_command, HAL_QPSI_TIMEOUT_DEFAULT_VALUE) != HAL_OK)
 621:Drivers/BSP/STM32746G-Discovery/stm32746g_discovery_qspi.c ****   {
 622:Drivers/BSP/STM32746G-Discovery/stm32746g_discovery_qspi.c ****     return QSPI_ERROR;
 623:Drivers/BSP/STM32746G-Discovery/stm32746g_discovery_qspi.c ****   }
 624:Drivers/BSP/STM32746G-Discovery/stm32746g_discovery_qspi.c **** 
 625:Drivers/BSP/STM32746G-Discovery/stm32746g_discovery_qspi.c ****   /* Send the reset memory command */
 626:Drivers/BSP/STM32746G-Discovery/stm32746g_discovery_qspi.c ****   s_command.Instruction = RESET_MEMORY_CMD;
 627:Drivers/BSP/STM32746G-Discovery/stm32746g_discovery_qspi.c ****   if (HAL_QSPI_Command(hqspi, &s_command, HAL_QPSI_TIMEOUT_DEFAULT_VALUE) != HAL_OK)
 628:Drivers/BSP/STM32746G-Discovery/stm32746g_discovery_qspi.c ****   {
 629:Drivers/BSP/STM32746G-Discovery/stm32746g_discovery_qspi.c ****     return QSPI_ERROR;
 630:Drivers/BSP/STM32746G-Discovery/stm32746g_discovery_qspi.c ****   }
 631:Drivers/BSP/STM32746G-Discovery/stm32746g_discovery_qspi.c **** 
 632:Drivers/BSP/STM32746G-Discovery/stm32746g_discovery_qspi.c ****   /* Configure automatic polling mode to wait the memory is ready */  
 633:Drivers/BSP/STM32746G-Discovery/stm32746g_discovery_qspi.c ****   if (QSPI_AutoPollingMemReady(hqspi, HAL_QPSI_TIMEOUT_DEFAULT_VALUE) != QSPI_OK)
 634:Drivers/BSP/STM32746G-Discovery/stm32746g_discovery_qspi.c ****   {
 635:Drivers/BSP/STM32746G-Discovery/stm32746g_discovery_qspi.c ****     return QSPI_ERROR;
 636:Drivers/BSP/STM32746G-Discovery/stm32746g_discovery_qspi.c ****   }
 637:Drivers/BSP/STM32746G-Discovery/stm32746g_discovery_qspi.c **** 
 638:Drivers/BSP/STM32746G-Discovery/stm32746g_discovery_qspi.c ****   return QSPI_OK;
 639:Drivers/BSP/STM32746G-Discovery/stm32746g_discovery_qspi.c **** }
 640:Drivers/BSP/STM32746G-Discovery/stm32746g_discovery_qspi.c **** 
 641:Drivers/BSP/STM32746G-Discovery/stm32746g_discovery_qspi.c **** /**
 642:Drivers/BSP/STM32746G-Discovery/stm32746g_discovery_qspi.c ****   * @brief  This function configure the dummy cycles on memory side.
 643:Drivers/BSP/STM32746G-Discovery/stm32746g_discovery_qspi.c ****   * @param  hqspi: QSPI handle
 644:Drivers/BSP/STM32746G-Discovery/stm32746g_discovery_qspi.c ****   * @retval None
 645:Drivers/BSP/STM32746G-Discovery/stm32746g_discovery_qspi.c ****   */
 646:Drivers/BSP/STM32746G-Discovery/stm32746g_discovery_qspi.c **** static uint8_t QSPI_DummyCyclesCfg(QSPI_HandleTypeDef *hqspi)
 647:Drivers/BSP/STM32746G-Discovery/stm32746g_discovery_qspi.c **** {
 648:Drivers/BSP/STM32746G-Discovery/stm32746g_discovery_qspi.c ****   QSPI_CommandTypeDef s_command;
 649:Drivers/BSP/STM32746G-Discovery/stm32746g_discovery_qspi.c ****   uint8_t reg;
 650:Drivers/BSP/STM32746G-Discovery/stm32746g_discovery_qspi.c **** 
 651:Drivers/BSP/STM32746G-Discovery/stm32746g_discovery_qspi.c ****   /* Initialize the read volatile configuration register command */
 652:Drivers/BSP/STM32746G-Discovery/stm32746g_discovery_qspi.c ****   s_command.InstructionMode   = QSPI_INSTRUCTION_1_LINE;
 653:Drivers/BSP/STM32746G-Discovery/stm32746g_discovery_qspi.c ****   s_command.Instruction       = READ_VOL_CFG_REG_CMD;
 654:Drivers/BSP/STM32746G-Discovery/stm32746g_discovery_qspi.c ****   s_command.AddressMode       = QSPI_ADDRESS_NONE;
 655:Drivers/BSP/STM32746G-Discovery/stm32746g_discovery_qspi.c ****   s_command.AlternateByteMode = QSPI_ALTERNATE_BYTES_NONE;
 656:Drivers/BSP/STM32746G-Discovery/stm32746g_discovery_qspi.c ****   s_command.DataMode          = QSPI_DATA_1_LINE;
 657:Drivers/BSP/STM32746G-Discovery/stm32746g_discovery_qspi.c ****   s_command.DummyCycles       = 0;
 658:Drivers/BSP/STM32746G-Discovery/stm32746g_discovery_qspi.c ****   s_command.NbData            = 1;
 659:Drivers/BSP/STM32746G-Discovery/stm32746g_discovery_qspi.c ****   s_command.DdrMode           = QSPI_DDR_MODE_DISABLE;
ARM GAS  C:\Users\Student\AppData\Local\Temp\ccbW8nln.s 			page 13


 660:Drivers/BSP/STM32746G-Discovery/stm32746g_discovery_qspi.c ****   s_command.DdrHoldHalfCycle  = QSPI_DDR_HHC_ANALOG_DELAY;
 661:Drivers/BSP/STM32746G-Discovery/stm32746g_discovery_qspi.c ****   s_command.SIOOMode          = QSPI_SIOO_INST_EVERY_CMD;
 662:Drivers/BSP/STM32746G-Discovery/stm32746g_discovery_qspi.c **** 
 663:Drivers/BSP/STM32746G-Discovery/stm32746g_discovery_qspi.c ****   /* Configure the command */
 664:Drivers/BSP/STM32746G-Discovery/stm32746g_discovery_qspi.c ****   if (HAL_QSPI_Command(hqspi, &s_command, HAL_QPSI_TIMEOUT_DEFAULT_VALUE) != HAL_OK)
 665:Drivers/BSP/STM32746G-Discovery/stm32746g_discovery_qspi.c ****   {
 666:Drivers/BSP/STM32746G-Discovery/stm32746g_discovery_qspi.c ****     return QSPI_ERROR;
 667:Drivers/BSP/STM32746G-Discovery/stm32746g_discovery_qspi.c ****   }
 668:Drivers/BSP/STM32746G-Discovery/stm32746g_discovery_qspi.c **** 
 669:Drivers/BSP/STM32746G-Discovery/stm32746g_discovery_qspi.c ****   /* Reception of the data */
 670:Drivers/BSP/STM32746G-Discovery/stm32746g_discovery_qspi.c ****   if (HAL_QSPI_Receive(hqspi, &reg, HAL_QPSI_TIMEOUT_DEFAULT_VALUE) != HAL_OK)
 671:Drivers/BSP/STM32746G-Discovery/stm32746g_discovery_qspi.c ****   {
 672:Drivers/BSP/STM32746G-Discovery/stm32746g_discovery_qspi.c ****     return QSPI_ERROR;
 673:Drivers/BSP/STM32746G-Discovery/stm32746g_discovery_qspi.c ****   }
 674:Drivers/BSP/STM32746G-Discovery/stm32746g_discovery_qspi.c **** 
 675:Drivers/BSP/STM32746G-Discovery/stm32746g_discovery_qspi.c ****   /* Enable write operations */
 676:Drivers/BSP/STM32746G-Discovery/stm32746g_discovery_qspi.c ****   if (QSPI_WriteEnable(hqspi) != QSPI_OK)
 677:Drivers/BSP/STM32746G-Discovery/stm32746g_discovery_qspi.c ****   {
 678:Drivers/BSP/STM32746G-Discovery/stm32746g_discovery_qspi.c ****     return QSPI_ERROR;
 679:Drivers/BSP/STM32746G-Discovery/stm32746g_discovery_qspi.c ****   }
 680:Drivers/BSP/STM32746G-Discovery/stm32746g_discovery_qspi.c **** 
 681:Drivers/BSP/STM32746G-Discovery/stm32746g_discovery_qspi.c ****   /* Update volatile configuration register (with new dummy cycles) */  
 682:Drivers/BSP/STM32746G-Discovery/stm32746g_discovery_qspi.c ****   s_command.Instruction = WRITE_VOL_CFG_REG_CMD;
 683:Drivers/BSP/STM32746G-Discovery/stm32746g_discovery_qspi.c ****   MODIFY_REG(reg, N25Q128A_VCR_NB_DUMMY, (N25Q128A_DUMMY_CYCLES_READ_QUAD << POSITION_VAL(N25Q128A_
 684:Drivers/BSP/STM32746G-Discovery/stm32746g_discovery_qspi.c ****       
 685:Drivers/BSP/STM32746G-Discovery/stm32746g_discovery_qspi.c ****   /* Configure the write volatile configuration register command */
 686:Drivers/BSP/STM32746G-Discovery/stm32746g_discovery_qspi.c ****   if (HAL_QSPI_Command(hqspi, &s_command, HAL_QPSI_TIMEOUT_DEFAULT_VALUE) != HAL_OK)
 687:Drivers/BSP/STM32746G-Discovery/stm32746g_discovery_qspi.c ****   {
 688:Drivers/BSP/STM32746G-Discovery/stm32746g_discovery_qspi.c ****     return QSPI_ERROR;
 689:Drivers/BSP/STM32746G-Discovery/stm32746g_discovery_qspi.c ****   }
 690:Drivers/BSP/STM32746G-Discovery/stm32746g_discovery_qspi.c **** 
 691:Drivers/BSP/STM32746G-Discovery/stm32746g_discovery_qspi.c ****   /* Transmission of the data */
 692:Drivers/BSP/STM32746G-Discovery/stm32746g_discovery_qspi.c ****   if (HAL_QSPI_Transmit(hqspi, &reg, HAL_QPSI_TIMEOUT_DEFAULT_VALUE) != HAL_OK)
 693:Drivers/BSP/STM32746G-Discovery/stm32746g_discovery_qspi.c ****   {
 694:Drivers/BSP/STM32746G-Discovery/stm32746g_discovery_qspi.c ****     return QSPI_ERROR;
 695:Drivers/BSP/STM32746G-Discovery/stm32746g_discovery_qspi.c ****   }
 696:Drivers/BSP/STM32746G-Discovery/stm32746g_discovery_qspi.c ****   
 697:Drivers/BSP/STM32746G-Discovery/stm32746g_discovery_qspi.c ****   return QSPI_OK;
 698:Drivers/BSP/STM32746G-Discovery/stm32746g_discovery_qspi.c **** }
 699:Drivers/BSP/STM32746G-Discovery/stm32746g_discovery_qspi.c **** 
 700:Drivers/BSP/STM32746G-Discovery/stm32746g_discovery_qspi.c **** /**
 701:Drivers/BSP/STM32746G-Discovery/stm32746g_discovery_qspi.c ****   * @brief  This function send a Write Enable and wait it is effective.
 702:Drivers/BSP/STM32746G-Discovery/stm32746g_discovery_qspi.c ****   * @param  hqspi: QSPI handle
 703:Drivers/BSP/STM32746G-Discovery/stm32746g_discovery_qspi.c ****   * @retval None
 704:Drivers/BSP/STM32746G-Discovery/stm32746g_discovery_qspi.c ****   */
 705:Drivers/BSP/STM32746G-Discovery/stm32746g_discovery_qspi.c **** static uint8_t QSPI_WriteEnable(QSPI_HandleTypeDef *hqspi)
 706:Drivers/BSP/STM32746G-Discovery/stm32746g_discovery_qspi.c **** {
 707:Drivers/BSP/STM32746G-Discovery/stm32746g_discovery_qspi.c ****   QSPI_CommandTypeDef     s_command;
 708:Drivers/BSP/STM32746G-Discovery/stm32746g_discovery_qspi.c ****   QSPI_AutoPollingTypeDef s_config;
 709:Drivers/BSP/STM32746G-Discovery/stm32746g_discovery_qspi.c **** 
 710:Drivers/BSP/STM32746G-Discovery/stm32746g_discovery_qspi.c ****   /* Enable write operations */
 711:Drivers/BSP/STM32746G-Discovery/stm32746g_discovery_qspi.c ****   s_command.InstructionMode   = QSPI_INSTRUCTION_1_LINE;
 712:Drivers/BSP/STM32746G-Discovery/stm32746g_discovery_qspi.c ****   s_command.Instruction       = WRITE_ENABLE_CMD;
 713:Drivers/BSP/STM32746G-Discovery/stm32746g_discovery_qspi.c ****   s_command.AddressMode       = QSPI_ADDRESS_NONE;
 714:Drivers/BSP/STM32746G-Discovery/stm32746g_discovery_qspi.c ****   s_command.AlternateByteMode = QSPI_ALTERNATE_BYTES_NONE;
 715:Drivers/BSP/STM32746G-Discovery/stm32746g_discovery_qspi.c ****   s_command.DataMode          = QSPI_DATA_NONE;
 716:Drivers/BSP/STM32746G-Discovery/stm32746g_discovery_qspi.c ****   s_command.DummyCycles       = 0;
ARM GAS  C:\Users\Student\AppData\Local\Temp\ccbW8nln.s 			page 14


 717:Drivers/BSP/STM32746G-Discovery/stm32746g_discovery_qspi.c ****   s_command.DdrMode           = QSPI_DDR_MODE_DISABLE;
 718:Drivers/BSP/STM32746G-Discovery/stm32746g_discovery_qspi.c ****   s_command.DdrHoldHalfCycle  = QSPI_DDR_HHC_ANALOG_DELAY;
 719:Drivers/BSP/STM32746G-Discovery/stm32746g_discovery_qspi.c ****   s_command.SIOOMode          = QSPI_SIOO_INST_EVERY_CMD;
 720:Drivers/BSP/STM32746G-Discovery/stm32746g_discovery_qspi.c **** 
 721:Drivers/BSP/STM32746G-Discovery/stm32746g_discovery_qspi.c ****   if (HAL_QSPI_Command(hqspi, &s_command, HAL_QPSI_TIMEOUT_DEFAULT_VALUE) != HAL_OK)
 722:Drivers/BSP/STM32746G-Discovery/stm32746g_discovery_qspi.c ****   {
 723:Drivers/BSP/STM32746G-Discovery/stm32746g_discovery_qspi.c ****     return QSPI_ERROR;
 724:Drivers/BSP/STM32746G-Discovery/stm32746g_discovery_qspi.c ****   }
 725:Drivers/BSP/STM32746G-Discovery/stm32746g_discovery_qspi.c ****   
 726:Drivers/BSP/STM32746G-Discovery/stm32746g_discovery_qspi.c ****   /* Configure automatic polling mode to wait for write enabling */  
 727:Drivers/BSP/STM32746G-Discovery/stm32746g_discovery_qspi.c ****   s_config.Match           = N25Q128A_SR_WREN;
 728:Drivers/BSP/STM32746G-Discovery/stm32746g_discovery_qspi.c ****   s_config.Mask            = N25Q128A_SR_WREN;
 729:Drivers/BSP/STM32746G-Discovery/stm32746g_discovery_qspi.c ****   s_config.MatchMode       = QSPI_MATCH_MODE_AND;
 730:Drivers/BSP/STM32746G-Discovery/stm32746g_discovery_qspi.c ****   s_config.StatusBytesSize = 1;
 731:Drivers/BSP/STM32746G-Discovery/stm32746g_discovery_qspi.c ****   s_config.Interval        = 0x10;
 732:Drivers/BSP/STM32746G-Discovery/stm32746g_discovery_qspi.c ****   s_config.AutomaticStop   = QSPI_AUTOMATIC_STOP_ENABLE;
 733:Drivers/BSP/STM32746G-Discovery/stm32746g_discovery_qspi.c **** 
 734:Drivers/BSP/STM32746G-Discovery/stm32746g_discovery_qspi.c ****   s_command.Instruction    = READ_STATUS_REG_CMD;
 735:Drivers/BSP/STM32746G-Discovery/stm32746g_discovery_qspi.c ****   s_command.DataMode       = QSPI_DATA_1_LINE;
 736:Drivers/BSP/STM32746G-Discovery/stm32746g_discovery_qspi.c **** 
 737:Drivers/BSP/STM32746G-Discovery/stm32746g_discovery_qspi.c ****   if (HAL_QSPI_AutoPolling(hqspi, &s_command, &s_config, HAL_QPSI_TIMEOUT_DEFAULT_VALUE) != HAL_OK)
 738:Drivers/BSP/STM32746G-Discovery/stm32746g_discovery_qspi.c ****   {
 739:Drivers/BSP/STM32746G-Discovery/stm32746g_discovery_qspi.c ****     return QSPI_ERROR;
 740:Drivers/BSP/STM32746G-Discovery/stm32746g_discovery_qspi.c ****   }
 741:Drivers/BSP/STM32746G-Discovery/stm32746g_discovery_qspi.c **** 
 742:Drivers/BSP/STM32746G-Discovery/stm32746g_discovery_qspi.c ****   return QSPI_OK;
 743:Drivers/BSP/STM32746G-Discovery/stm32746g_discovery_qspi.c **** }
 744:Drivers/BSP/STM32746G-Discovery/stm32746g_discovery_qspi.c **** 
 745:Drivers/BSP/STM32746G-Discovery/stm32746g_discovery_qspi.c **** /**
 746:Drivers/BSP/STM32746G-Discovery/stm32746g_discovery_qspi.c ****   * @brief  This function read the SR of the memory and wait the EOP.
 747:Drivers/BSP/STM32746G-Discovery/stm32746g_discovery_qspi.c ****   * @param  hqspi: QSPI handle
 748:Drivers/BSP/STM32746G-Discovery/stm32746g_discovery_qspi.c ****   * @param  Timeout
 749:Drivers/BSP/STM32746G-Discovery/stm32746g_discovery_qspi.c ****   * @retval None
 750:Drivers/BSP/STM32746G-Discovery/stm32746g_discovery_qspi.c ****   */
 751:Drivers/BSP/STM32746G-Discovery/stm32746g_discovery_qspi.c **** static uint8_t QSPI_AutoPollingMemReady(QSPI_HandleTypeDef *hqspi, uint32_t Timeout)
 752:Drivers/BSP/STM32746G-Discovery/stm32746g_discovery_qspi.c **** {
  27              		.loc 1 752 0
  28              		.cfi_startproc
  29              		@ args = 0, pretend = 0, frame = 80
  30              		@ frame_needed = 0, uses_anonymous_args = 0
  31              	.LVL0:
  32 0000 00B5     		push	{lr}
  33              	.LCFI0:
  34              		.cfi_def_cfa_offset 4
  35              		.cfi_offset 14, -4
  36 0002 95B0     		sub	sp, sp, #84
  37              	.LCFI1:
  38              		.cfi_def_cfa_offset 88
 753:Drivers/BSP/STM32746G-Discovery/stm32746g_discovery_qspi.c ****   QSPI_CommandTypeDef     s_command;
 754:Drivers/BSP/STM32746G-Discovery/stm32746g_discovery_qspi.c ****   QSPI_AutoPollingTypeDef s_config;
 755:Drivers/BSP/STM32746G-Discovery/stm32746g_discovery_qspi.c **** 
 756:Drivers/BSP/STM32746G-Discovery/stm32746g_discovery_qspi.c ****   /* Configure automatic polling mode to wait for memory ready */  
 757:Drivers/BSP/STM32746G-Discovery/stm32746g_discovery_qspi.c ****   s_command.InstructionMode   = QSPI_INSTRUCTION_1_LINE;
  39              		.loc 1 757 0
  40 0004 4FF48073 		mov	r3, #256
  41 0008 0C93     		str	r3, [sp, #48]
 758:Drivers/BSP/STM32746G-Discovery/stm32746g_discovery_qspi.c ****   s_command.Instruction       = READ_STATUS_REG_CMD;
ARM GAS  C:\Users\Student\AppData\Local\Temp\ccbW8nln.s 			page 15


  42              		.loc 1 758 0
  43 000a 0523     		movs	r3, #5
  44 000c 0693     		str	r3, [sp, #24]
 759:Drivers/BSP/STM32746G-Discovery/stm32746g_discovery_qspi.c ****   s_command.AddressMode       = QSPI_ADDRESS_NONE;
  45              		.loc 1 759 0
  46 000e 0023     		movs	r3, #0
  47 0010 0D93     		str	r3, [sp, #52]
 760:Drivers/BSP/STM32746G-Discovery/stm32746g_discovery_qspi.c ****   s_command.AlternateByteMode = QSPI_ALTERNATE_BYTES_NONE;
  48              		.loc 1 760 0
  49 0012 0E93     		str	r3, [sp, #56]
 761:Drivers/BSP/STM32746G-Discovery/stm32746g_discovery_qspi.c ****   s_command.DataMode          = QSPI_DATA_1_LINE;
  50              		.loc 1 761 0
  51 0014 4FF08072 		mov	r2, #16777216
  52 0018 0F92     		str	r2, [sp, #60]
 762:Drivers/BSP/STM32746G-Discovery/stm32746g_discovery_qspi.c ****   s_command.DummyCycles       = 0;
  53              		.loc 1 762 0
  54 001a 0B93     		str	r3, [sp, #44]
 763:Drivers/BSP/STM32746G-Discovery/stm32746g_discovery_qspi.c ****   s_command.DdrMode           = QSPI_DDR_MODE_DISABLE;
  55              		.loc 1 763 0
  56 001c 1193     		str	r3, [sp, #68]
 764:Drivers/BSP/STM32746G-Discovery/stm32746g_discovery_qspi.c ****   s_command.DdrHoldHalfCycle  = QSPI_DDR_HHC_ANALOG_DELAY;
  57              		.loc 1 764 0
  58 001e 1293     		str	r3, [sp, #72]
 765:Drivers/BSP/STM32746G-Discovery/stm32746g_discovery_qspi.c ****   s_command.SIOOMode          = QSPI_SIOO_INST_EVERY_CMD;
  59              		.loc 1 765 0
  60 0020 1393     		str	r3, [sp, #76]
 766:Drivers/BSP/STM32746G-Discovery/stm32746g_discovery_qspi.c **** 
 767:Drivers/BSP/STM32746G-Discovery/stm32746g_discovery_qspi.c ****   s_config.Match           = 0;
  61              		.loc 1 767 0
  62 0022 0093     		str	r3, [sp]
 768:Drivers/BSP/STM32746G-Discovery/stm32746g_discovery_qspi.c ****   s_config.Mask            = N25Q128A_SR_WIP;
  63              		.loc 1 768 0
  64 0024 0122     		movs	r2, #1
  65 0026 0192     		str	r2, [sp, #4]
 769:Drivers/BSP/STM32746G-Discovery/stm32746g_discovery_qspi.c ****   s_config.MatchMode       = QSPI_MATCH_MODE_AND;
  66              		.loc 1 769 0
  67 0028 0493     		str	r3, [sp, #16]
 770:Drivers/BSP/STM32746G-Discovery/stm32746g_discovery_qspi.c ****   s_config.StatusBytesSize = 1;
  68              		.loc 1 770 0
  69 002a 0392     		str	r2, [sp, #12]
 771:Drivers/BSP/STM32746G-Discovery/stm32746g_discovery_qspi.c ****   s_config.Interval        = 0x10;
  70              		.loc 1 771 0
  71 002c 1023     		movs	r3, #16
  72 002e 0293     		str	r3, [sp, #8]
 772:Drivers/BSP/STM32746G-Discovery/stm32746g_discovery_qspi.c ****   s_config.AutomaticStop   = QSPI_AUTOMATIC_STOP_ENABLE;
  73              		.loc 1 772 0
  74 0030 4FF48003 		mov	r3, #4194304
  75 0034 0593     		str	r3, [sp, #20]
 773:Drivers/BSP/STM32746G-Discovery/stm32746g_discovery_qspi.c **** 
 774:Drivers/BSP/STM32746G-Discovery/stm32746g_discovery_qspi.c ****   if (HAL_QSPI_AutoPolling(hqspi, &s_command, &s_config, Timeout) != HAL_OK)
  76              		.loc 1 774 0
  77 0036 0B46     		mov	r3, r1
  78 0038 6A46     		mov	r2, sp
  79 003a 06A9     		add	r1, sp, #24
  80              	.LVL1:
  81 003c FFF7FEFF 		bl	HAL_QSPI_AutoPolling
  82              	.LVL2:
ARM GAS  C:\Users\Student\AppData\Local\Temp\ccbW8nln.s 			page 16


  83 0040 18B9     		cbnz	r0, .L5
 775:Drivers/BSP/STM32746G-Discovery/stm32746g_discovery_qspi.c ****   {
 776:Drivers/BSP/STM32746G-Discovery/stm32746g_discovery_qspi.c ****     return QSPI_ERROR;
 777:Drivers/BSP/STM32746G-Discovery/stm32746g_discovery_qspi.c ****   }
 778:Drivers/BSP/STM32746G-Discovery/stm32746g_discovery_qspi.c **** 
 779:Drivers/BSP/STM32746G-Discovery/stm32746g_discovery_qspi.c ****   return QSPI_OK;
  84              		.loc 1 779 0
  85 0042 0020     		movs	r0, #0
  86              	.L2:
 780:Drivers/BSP/STM32746G-Discovery/stm32746g_discovery_qspi.c **** }
  87              		.loc 1 780 0
  88 0044 15B0     		add	sp, sp, #84
  89              	.LCFI2:
  90              		.cfi_remember_state
  91              		.cfi_def_cfa_offset 4
  92              		@ sp needed
  93 0046 5DF804FB 		ldr	pc, [sp], #4
  94              	.L5:
  95              	.LCFI3:
  96              		.cfi_restore_state
 776:Drivers/BSP/STM32746G-Discovery/stm32746g_discovery_qspi.c ****   }
  97              		.loc 1 776 0
  98 004a 0120     		movs	r0, #1
  99 004c FAE7     		b	.L2
 100              		.cfi_endproc
 101              	.LFE150:
 103              		.section	.text.QSPI_ResetMemory,"ax",%progbits
 104              		.align	1
 105              		.syntax unified
 106              		.thumb
 107              		.thumb_func
 108              		.fpu fpv5-sp-d16
 110              	QSPI_ResetMemory:
 111              	.LFB147:
 605:Drivers/BSP/STM32746G-Discovery/stm32746g_discovery_qspi.c ****   QSPI_CommandTypeDef s_command;
 112              		.loc 1 605 0
 113              		.cfi_startproc
 114              		@ args = 0, pretend = 0, frame = 56
 115              		@ frame_needed = 0, uses_anonymous_args = 0
 116              	.LVL3:
 117 0000 10B5     		push	{r4, lr}
 118              	.LCFI4:
 119              		.cfi_def_cfa_offset 8
 120              		.cfi_offset 4, -8
 121              		.cfi_offset 14, -4
 122 0002 8EB0     		sub	sp, sp, #56
 123              	.LCFI5:
 124              		.cfi_def_cfa_offset 64
 125 0004 0446     		mov	r4, r0
 609:Drivers/BSP/STM32746G-Discovery/stm32746g_discovery_qspi.c ****   s_command.Instruction       = RESET_ENABLE_CMD;
 126              		.loc 1 609 0
 127 0006 4FF48073 		mov	r3, #256
 128 000a 0693     		str	r3, [sp, #24]
 610:Drivers/BSP/STM32746G-Discovery/stm32746g_discovery_qspi.c ****   s_command.AddressMode       = QSPI_ADDRESS_NONE;
 129              		.loc 1 610 0
 130 000c 6623     		movs	r3, #102
 131 000e 0093     		str	r3, [sp]
ARM GAS  C:\Users\Student\AppData\Local\Temp\ccbW8nln.s 			page 17


 611:Drivers/BSP/STM32746G-Discovery/stm32746g_discovery_qspi.c ****   s_command.AlternateByteMode = QSPI_ALTERNATE_BYTES_NONE;
 132              		.loc 1 611 0
 133 0010 0023     		movs	r3, #0
 134 0012 0793     		str	r3, [sp, #28]
 612:Drivers/BSP/STM32746G-Discovery/stm32746g_discovery_qspi.c ****   s_command.DataMode          = QSPI_DATA_NONE;
 135              		.loc 1 612 0
 136 0014 0893     		str	r3, [sp, #32]
 613:Drivers/BSP/STM32746G-Discovery/stm32746g_discovery_qspi.c ****   s_command.DummyCycles       = 0;
 137              		.loc 1 613 0
 138 0016 0993     		str	r3, [sp, #36]
 614:Drivers/BSP/STM32746G-Discovery/stm32746g_discovery_qspi.c ****   s_command.DdrMode           = QSPI_DDR_MODE_DISABLE;
 139              		.loc 1 614 0
 140 0018 0593     		str	r3, [sp, #20]
 615:Drivers/BSP/STM32746G-Discovery/stm32746g_discovery_qspi.c ****   s_command.DdrHoldHalfCycle  = QSPI_DDR_HHC_ANALOG_DELAY;
 141              		.loc 1 615 0
 142 001a 0B93     		str	r3, [sp, #44]
 616:Drivers/BSP/STM32746G-Discovery/stm32746g_discovery_qspi.c ****   s_command.SIOOMode          = QSPI_SIOO_INST_EVERY_CMD;
 143              		.loc 1 616 0
 144 001c 0C93     		str	r3, [sp, #48]
 617:Drivers/BSP/STM32746G-Discovery/stm32746g_discovery_qspi.c **** 
 145              		.loc 1 617 0
 146 001e 0D93     		str	r3, [sp, #52]
 620:Drivers/BSP/STM32746G-Discovery/stm32746g_discovery_qspi.c ****   {
 147              		.loc 1 620 0
 148 0020 41F28832 		movw	r2, #5000
 149 0024 6946     		mov	r1, sp
 150 0026 FFF7FEFF 		bl	HAL_QSPI_Command
 151              	.LVL4:
 152 002a 18B1     		cbz	r0, .L11
 622:Drivers/BSP/STM32746G-Discovery/stm32746g_discovery_qspi.c ****   }
 153              		.loc 1 622 0
 154 002c 0123     		movs	r3, #1
 155              	.L7:
 639:Drivers/BSP/STM32746G-Discovery/stm32746g_discovery_qspi.c **** 
 156              		.loc 1 639 0
 157 002e 1846     		mov	r0, r3
 158 0030 0EB0     		add	sp, sp, #56
 159              	.LCFI6:
 160              		.cfi_remember_state
 161              		.cfi_def_cfa_offset 8
 162              		@ sp needed
 163 0032 10BD     		pop	{r4, pc}
 164              	.LVL5:
 165              	.L11:
 166              	.LCFI7:
 167              		.cfi_restore_state
 626:Drivers/BSP/STM32746G-Discovery/stm32746g_discovery_qspi.c ****   if (HAL_QSPI_Command(hqspi, &s_command, HAL_QPSI_TIMEOUT_DEFAULT_VALUE) != HAL_OK)
 168              		.loc 1 626 0
 169 0034 0EA9     		add	r1, sp, #56
 170 0036 9923     		movs	r3, #153
 171 0038 41F8383D 		str	r3, [r1, #-56]!
 627:Drivers/BSP/STM32746G-Discovery/stm32746g_discovery_qspi.c ****   {
 172              		.loc 1 627 0
 173 003c 41F28832 		movw	r2, #5000
 174 0040 2046     		mov	r0, r4
 175 0042 FFF7FEFF 		bl	HAL_QSPI_Command
 176              	.LVL6:
ARM GAS  C:\Users\Student\AppData\Local\Temp\ccbW8nln.s 			page 18


 177 0046 08B1     		cbz	r0, .L12
 629:Drivers/BSP/STM32746G-Discovery/stm32746g_discovery_qspi.c ****   }
 178              		.loc 1 629 0
 179 0048 0123     		movs	r3, #1
 180 004a F0E7     		b	.L7
 181              	.L12:
 633:Drivers/BSP/STM32746G-Discovery/stm32746g_discovery_qspi.c ****   {
 182              		.loc 1 633 0
 183 004c 41F28831 		movw	r1, #5000
 184 0050 2046     		mov	r0, r4
 185 0052 FFF7FEFF 		bl	QSPI_AutoPollingMemReady
 186              	.LVL7:
 187 0056 0346     		mov	r3, r0
 188 0058 0028     		cmp	r0, #0
 189 005a E8D0     		beq	.L7
 635:Drivers/BSP/STM32746G-Discovery/stm32746g_discovery_qspi.c ****   }
 190              		.loc 1 635 0
 191 005c 0123     		movs	r3, #1
 192 005e E6E7     		b	.L7
 193              		.cfi_endproc
 194              	.LFE147:
 196              		.section	.text.QSPI_WriteEnable,"ax",%progbits
 197              		.align	1
 198              		.syntax unified
 199              		.thumb
 200              		.thumb_func
 201              		.fpu fpv5-sp-d16
 203              	QSPI_WriteEnable:
 204              	.LFB149:
 706:Drivers/BSP/STM32746G-Discovery/stm32746g_discovery_qspi.c ****   QSPI_CommandTypeDef     s_command;
 205              		.loc 1 706 0
 206              		.cfi_startproc
 207              		@ args = 0, pretend = 0, frame = 80
 208              		@ frame_needed = 0, uses_anonymous_args = 0
 209              	.LVL8:
 210 0000 10B5     		push	{r4, lr}
 211              	.LCFI8:
 212              		.cfi_def_cfa_offset 8
 213              		.cfi_offset 4, -8
 214              		.cfi_offset 14, -4
 215 0002 94B0     		sub	sp, sp, #80
 216              	.LCFI9:
 217              		.cfi_def_cfa_offset 88
 218 0004 0446     		mov	r4, r0
 711:Drivers/BSP/STM32746G-Discovery/stm32746g_discovery_qspi.c ****   s_command.Instruction       = WRITE_ENABLE_CMD;
 219              		.loc 1 711 0
 220 0006 4FF48073 		mov	r3, #256
 221 000a 0C93     		str	r3, [sp, #48]
 712:Drivers/BSP/STM32746G-Discovery/stm32746g_discovery_qspi.c ****   s_command.AddressMode       = QSPI_ADDRESS_NONE;
 222              		.loc 1 712 0
 223 000c 0623     		movs	r3, #6
 224 000e 0693     		str	r3, [sp, #24]
 713:Drivers/BSP/STM32746G-Discovery/stm32746g_discovery_qspi.c ****   s_command.AlternateByteMode = QSPI_ALTERNATE_BYTES_NONE;
 225              		.loc 1 713 0
 226 0010 0023     		movs	r3, #0
 227 0012 0D93     		str	r3, [sp, #52]
 714:Drivers/BSP/STM32746G-Discovery/stm32746g_discovery_qspi.c ****   s_command.DataMode          = QSPI_DATA_NONE;
ARM GAS  C:\Users\Student\AppData\Local\Temp\ccbW8nln.s 			page 19


 228              		.loc 1 714 0
 229 0014 0E93     		str	r3, [sp, #56]
 715:Drivers/BSP/STM32746G-Discovery/stm32746g_discovery_qspi.c ****   s_command.DummyCycles       = 0;
 230              		.loc 1 715 0
 231 0016 0F93     		str	r3, [sp, #60]
 716:Drivers/BSP/STM32746G-Discovery/stm32746g_discovery_qspi.c ****   s_command.DdrMode           = QSPI_DDR_MODE_DISABLE;
 232              		.loc 1 716 0
 233 0018 0B93     		str	r3, [sp, #44]
 717:Drivers/BSP/STM32746G-Discovery/stm32746g_discovery_qspi.c ****   s_command.DdrHoldHalfCycle  = QSPI_DDR_HHC_ANALOG_DELAY;
 234              		.loc 1 717 0
 235 001a 1193     		str	r3, [sp, #68]
 718:Drivers/BSP/STM32746G-Discovery/stm32746g_discovery_qspi.c ****   s_command.SIOOMode          = QSPI_SIOO_INST_EVERY_CMD;
 236              		.loc 1 718 0
 237 001c 1293     		str	r3, [sp, #72]
 719:Drivers/BSP/STM32746G-Discovery/stm32746g_discovery_qspi.c **** 
 238              		.loc 1 719 0
 239 001e 1393     		str	r3, [sp, #76]
 721:Drivers/BSP/STM32746G-Discovery/stm32746g_discovery_qspi.c ****   {
 240              		.loc 1 721 0
 241 0020 41F28832 		movw	r2, #5000
 242 0024 06A9     		add	r1, sp, #24
 243 0026 FFF7FEFF 		bl	HAL_QSPI_Command
 244              	.LVL9:
 245 002a 10B1     		cbz	r0, .L18
 723:Drivers/BSP/STM32746G-Discovery/stm32746g_discovery_qspi.c ****   }
 246              		.loc 1 723 0
 247 002c 0120     		movs	r0, #1
 248              	.L14:
 743:Drivers/BSP/STM32746G-Discovery/stm32746g_discovery_qspi.c **** 
 249              		.loc 1 743 0
 250 002e 14B0     		add	sp, sp, #80
 251              	.LCFI10:
 252              		.cfi_remember_state
 253              		.cfi_def_cfa_offset 8
 254              		@ sp needed
 255 0030 10BD     		pop	{r4, pc}
 256              	.LVL10:
 257              	.L18:
 258              	.LCFI11:
 259              		.cfi_restore_state
 727:Drivers/BSP/STM32746G-Discovery/stm32746g_discovery_qspi.c ****   s_config.Mask            = N25Q128A_SR_WREN;
 260              		.loc 1 727 0
 261 0032 0223     		movs	r3, #2
 262 0034 0093     		str	r3, [sp]
 728:Drivers/BSP/STM32746G-Discovery/stm32746g_discovery_qspi.c ****   s_config.MatchMode       = QSPI_MATCH_MODE_AND;
 263              		.loc 1 728 0
 264 0036 0193     		str	r3, [sp, #4]
 729:Drivers/BSP/STM32746G-Discovery/stm32746g_discovery_qspi.c ****   s_config.StatusBytesSize = 1;
 265              		.loc 1 729 0
 266 0038 0023     		movs	r3, #0
 267 003a 0493     		str	r3, [sp, #16]
 730:Drivers/BSP/STM32746G-Discovery/stm32746g_discovery_qspi.c ****   s_config.Interval        = 0x10;
 268              		.loc 1 730 0
 269 003c 0123     		movs	r3, #1
 270 003e 0393     		str	r3, [sp, #12]
 731:Drivers/BSP/STM32746G-Discovery/stm32746g_discovery_qspi.c ****   s_config.AutomaticStop   = QSPI_AUTOMATIC_STOP_ENABLE;
 271              		.loc 1 731 0
ARM GAS  C:\Users\Student\AppData\Local\Temp\ccbW8nln.s 			page 20


 272 0040 1023     		movs	r3, #16
 273 0042 0293     		str	r3, [sp, #8]
 732:Drivers/BSP/STM32746G-Discovery/stm32746g_discovery_qspi.c **** 
 274              		.loc 1 732 0
 275 0044 4FF48003 		mov	r3, #4194304
 276 0048 0593     		str	r3, [sp, #20]
 734:Drivers/BSP/STM32746G-Discovery/stm32746g_discovery_qspi.c ****   s_command.DataMode       = QSPI_DATA_1_LINE;
 277              		.loc 1 734 0
 278 004a 0523     		movs	r3, #5
 279 004c 0693     		str	r3, [sp, #24]
 735:Drivers/BSP/STM32746G-Discovery/stm32746g_discovery_qspi.c **** 
 280              		.loc 1 735 0
 281 004e 4FF08073 		mov	r3, #16777216
 282 0052 0F93     		str	r3, [sp, #60]
 737:Drivers/BSP/STM32746G-Discovery/stm32746g_discovery_qspi.c ****   {
 283              		.loc 1 737 0
 284 0054 41F28833 		movw	r3, #5000
 285 0058 6A46     		mov	r2, sp
 286 005a 06A9     		add	r1, sp, #24
 287 005c 2046     		mov	r0, r4
 288 005e FFF7FEFF 		bl	HAL_QSPI_AutoPolling
 289              	.LVL11:
 290 0062 08B9     		cbnz	r0, .L19
 742:Drivers/BSP/STM32746G-Discovery/stm32746g_discovery_qspi.c **** }
 291              		.loc 1 742 0
 292 0064 0020     		movs	r0, #0
 293 0066 E2E7     		b	.L14
 294              	.L19:
 739:Drivers/BSP/STM32746G-Discovery/stm32746g_discovery_qspi.c ****   }
 295              		.loc 1 739 0
 296 0068 0120     		movs	r0, #1
 297 006a E0E7     		b	.L14
 298              		.cfi_endproc
 299              	.LFE149:
 301              		.section	.text.QSPI_DummyCyclesCfg,"ax",%progbits
 302              		.align	1
 303              		.syntax unified
 304              		.thumb
 305              		.thumb_func
 306              		.fpu fpv5-sp-d16
 308              	QSPI_DummyCyclesCfg:
 309              	.LFB148:
 647:Drivers/BSP/STM32746G-Discovery/stm32746g_discovery_qspi.c ****   QSPI_CommandTypeDef s_command;
 310              		.loc 1 647 0
 311              		.cfi_startproc
 312              		@ args = 0, pretend = 0, frame = 64
 313              		@ frame_needed = 0, uses_anonymous_args = 0
 314              	.LVL12:
 315 0000 30B5     		push	{r4, r5, lr}
 316              	.LCFI12:
 317              		.cfi_def_cfa_offset 12
 318              		.cfi_offset 4, -12
 319              		.cfi_offset 5, -8
 320              		.cfi_offset 14, -4
 321 0002 91B0     		sub	sp, sp, #68
 322              	.LCFI13:
 323              		.cfi_def_cfa_offset 80
ARM GAS  C:\Users\Student\AppData\Local\Temp\ccbW8nln.s 			page 21


 324 0004 0546     		mov	r5, r0
 652:Drivers/BSP/STM32746G-Discovery/stm32746g_discovery_qspi.c ****   s_command.Instruction       = READ_VOL_CFG_REG_CMD;
 325              		.loc 1 652 0
 326 0006 4FF48073 		mov	r3, #256
 327 000a 0893     		str	r3, [sp, #32]
 653:Drivers/BSP/STM32746G-Discovery/stm32746g_discovery_qspi.c ****   s_command.AddressMode       = QSPI_ADDRESS_NONE;
 328              		.loc 1 653 0
 329 000c 8523     		movs	r3, #133
 330 000e 0293     		str	r3, [sp, #8]
 654:Drivers/BSP/STM32746G-Discovery/stm32746g_discovery_qspi.c ****   s_command.AlternateByteMode = QSPI_ALTERNATE_BYTES_NONE;
 331              		.loc 1 654 0
 332 0010 0023     		movs	r3, #0
 333 0012 0993     		str	r3, [sp, #36]
 655:Drivers/BSP/STM32746G-Discovery/stm32746g_discovery_qspi.c ****   s_command.DataMode          = QSPI_DATA_1_LINE;
 334              		.loc 1 655 0
 335 0014 0A93     		str	r3, [sp, #40]
 656:Drivers/BSP/STM32746G-Discovery/stm32746g_discovery_qspi.c ****   s_command.DummyCycles       = 0;
 336              		.loc 1 656 0
 337 0016 4FF08072 		mov	r2, #16777216
 338 001a 0B92     		str	r2, [sp, #44]
 657:Drivers/BSP/STM32746G-Discovery/stm32746g_discovery_qspi.c ****   s_command.NbData            = 1;
 339              		.loc 1 657 0
 340 001c 0793     		str	r3, [sp, #28]
 658:Drivers/BSP/STM32746G-Discovery/stm32746g_discovery_qspi.c ****   s_command.DdrMode           = QSPI_DDR_MODE_DISABLE;
 341              		.loc 1 658 0
 342 001e 0122     		movs	r2, #1
 343 0020 0C92     		str	r2, [sp, #48]
 659:Drivers/BSP/STM32746G-Discovery/stm32746g_discovery_qspi.c ****   s_command.DdrHoldHalfCycle  = QSPI_DDR_HHC_ANALOG_DELAY;
 344              		.loc 1 659 0
 345 0022 0D93     		str	r3, [sp, #52]
 660:Drivers/BSP/STM32746G-Discovery/stm32746g_discovery_qspi.c ****   s_command.SIOOMode          = QSPI_SIOO_INST_EVERY_CMD;
 346              		.loc 1 660 0
 347 0024 0E93     		str	r3, [sp, #56]
 661:Drivers/BSP/STM32746G-Discovery/stm32746g_discovery_qspi.c **** 
 348              		.loc 1 661 0
 349 0026 0F93     		str	r3, [sp, #60]
 664:Drivers/BSP/STM32746G-Discovery/stm32746g_discovery_qspi.c ****   {
 350              		.loc 1 664 0
 351 0028 41F28832 		movw	r2, #5000
 352 002c 02A9     		add	r1, sp, #8
 353 002e FFF7FEFF 		bl	HAL_QSPI_Command
 354              	.LVL13:
 355 0032 18B1     		cbz	r0, .L27
 666:Drivers/BSP/STM32746G-Discovery/stm32746g_discovery_qspi.c ****   }
 356              		.loc 1 666 0
 357 0034 0124     		movs	r4, #1
 358              	.L21:
 698:Drivers/BSP/STM32746G-Discovery/stm32746g_discovery_qspi.c **** 
 359              		.loc 1 698 0
 360 0036 2046     		mov	r0, r4
 361 0038 11B0     		add	sp, sp, #68
 362              	.LCFI14:
 363              		.cfi_remember_state
 364              		.cfi_def_cfa_offset 12
 365              		@ sp needed
 366 003a 30BD     		pop	{r4, r5, pc}
 367              	.LVL14:
ARM GAS  C:\Users\Student\AppData\Local\Temp\ccbW8nln.s 			page 22


 368              	.L27:
 369              	.LCFI15:
 370              		.cfi_restore_state
 670:Drivers/BSP/STM32746G-Discovery/stm32746g_discovery_qspi.c ****   {
 371              		.loc 1 670 0
 372 003c 41F28832 		movw	r2, #5000
 373 0040 0DF10701 		add	r1, sp, #7
 374 0044 2846     		mov	r0, r5
 375 0046 FFF7FEFF 		bl	HAL_QSPI_Receive
 376              	.LVL15:
 377 004a 08B1     		cbz	r0, .L28
 672:Drivers/BSP/STM32746G-Discovery/stm32746g_discovery_qspi.c ****   }
 378              		.loc 1 672 0
 379 004c 0124     		movs	r4, #1
 380 004e F2E7     		b	.L21
 381              	.L28:
 676:Drivers/BSP/STM32746G-Discovery/stm32746g_discovery_qspi.c ****   {
 382              		.loc 1 676 0
 383 0050 2846     		mov	r0, r5
 384 0052 FFF7FEFF 		bl	QSPI_WriteEnable
 385              	.LVL16:
 386 0056 0446     		mov	r4, r0
 387 0058 08B1     		cbz	r0, .L29
 678:Drivers/BSP/STM32746G-Discovery/stm32746g_discovery_qspi.c ****   }
 388              		.loc 1 678 0
 389 005a 0124     		movs	r4, #1
 390 005c EBE7     		b	.L21
 391              	.L29:
 682:Drivers/BSP/STM32746G-Discovery/stm32746g_discovery_qspi.c ****   MODIFY_REG(reg, N25Q128A_VCR_NB_DUMMY, (N25Q128A_DUMMY_CYCLES_READ_QUAD << POSITION_VAL(N25Q128A_
 392              		.loc 1 682 0
 393 005e 8123     		movs	r3, #129
 394 0060 0293     		str	r3, [sp, #8]
 683:Drivers/BSP/STM32746G-Discovery/stm32746g_discovery_qspi.c ****       
 395              		.loc 1 683 0
 396 0062 9DF80730 		ldrb	r3, [sp, #7]	@ zero_extendqisi2
 397 0066 03F00F03 		and	r3, r3, #15
 398              	.LVL17:
 399              	.LBB6:
 400              	.LBB7:
 401              		.file 2 "Drivers/CMSIS/Include/cmsis_gcc.h"
   1:Drivers/CMSIS/Include/cmsis_gcc.h **** /**************************************************************************//**
   2:Drivers/CMSIS/Include/cmsis_gcc.h ****  * @file     cmsis_gcc.h
   3:Drivers/CMSIS/Include/cmsis_gcc.h ****  * @brief    CMSIS Cortex-M Core Function/Instruction Header File
   4:Drivers/CMSIS/Include/cmsis_gcc.h ****  * @version  V4.30
   5:Drivers/CMSIS/Include/cmsis_gcc.h ****  * @date     20. October 2015
   6:Drivers/CMSIS/Include/cmsis_gcc.h ****  ******************************************************************************/
   7:Drivers/CMSIS/Include/cmsis_gcc.h **** /* Copyright (c) 2009 - 2015 ARM LIMITED
   8:Drivers/CMSIS/Include/cmsis_gcc.h **** 
   9:Drivers/CMSIS/Include/cmsis_gcc.h ****    All rights reserved.
  10:Drivers/CMSIS/Include/cmsis_gcc.h ****    Redistribution and use in source and binary forms, with or without
  11:Drivers/CMSIS/Include/cmsis_gcc.h ****    modification, are permitted provided that the following conditions are met:
  12:Drivers/CMSIS/Include/cmsis_gcc.h ****    - Redistributions of source code must retain the above copyright
  13:Drivers/CMSIS/Include/cmsis_gcc.h ****      notice, this list of conditions and the following disclaimer.
  14:Drivers/CMSIS/Include/cmsis_gcc.h ****    - Redistributions in binary form must reproduce the above copyright
  15:Drivers/CMSIS/Include/cmsis_gcc.h ****      notice, this list of conditions and the following disclaimer in the
  16:Drivers/CMSIS/Include/cmsis_gcc.h ****      documentation and/or other materials provided with the distribution.
  17:Drivers/CMSIS/Include/cmsis_gcc.h ****    - Neither the name of ARM nor the names of its contributors may be used
ARM GAS  C:\Users\Student\AppData\Local\Temp\ccbW8nln.s 			page 23


  18:Drivers/CMSIS/Include/cmsis_gcc.h ****      to endorse or promote products derived from this software without
  19:Drivers/CMSIS/Include/cmsis_gcc.h ****      specific prior written permission.
  20:Drivers/CMSIS/Include/cmsis_gcc.h ****    *
  21:Drivers/CMSIS/Include/cmsis_gcc.h ****    THIS SOFTWARE IS PROVIDED BY THE COPYRIGHT HOLDERS AND CONTRIBUTORS "AS IS"
  22:Drivers/CMSIS/Include/cmsis_gcc.h ****    AND ANY EXPRESS OR IMPLIED WARRANTIES, INCLUDING, BUT NOT LIMITED TO, THE
  23:Drivers/CMSIS/Include/cmsis_gcc.h ****    IMPLIED WARRANTIES OF MERCHANTABILITY AND FITNESS FOR A PARTICULAR PURPOSE
  24:Drivers/CMSIS/Include/cmsis_gcc.h ****    ARE DISCLAIMED. IN NO EVENT SHALL COPYRIGHT HOLDERS AND CONTRIBUTORS BE
  25:Drivers/CMSIS/Include/cmsis_gcc.h ****    LIABLE FOR ANY DIRECT, INDIRECT, INCIDENTAL, SPECIAL, EXEMPLARY, OR
  26:Drivers/CMSIS/Include/cmsis_gcc.h ****    CONSEQUENTIAL DAMAGES (INCLUDING, BUT NOT LIMITED TO, PROCUREMENT OF
  27:Drivers/CMSIS/Include/cmsis_gcc.h ****    SUBSTITUTE GOODS OR SERVICES; LOSS OF USE, DATA, OR PROFITS; OR BUSINESS
  28:Drivers/CMSIS/Include/cmsis_gcc.h ****    INTERRUPTION) HOWEVER CAUSED AND ON ANY THEORY OF LIABILITY, WHETHER IN
  29:Drivers/CMSIS/Include/cmsis_gcc.h ****    CONTRACT, STRICT LIABILITY, OR TORT (INCLUDING NEGLIGENCE OR OTHERWISE)
  30:Drivers/CMSIS/Include/cmsis_gcc.h ****    ARISING IN ANY WAY OUT OF THE USE OF THIS SOFTWARE, EVEN IF ADVISED OF THE
  31:Drivers/CMSIS/Include/cmsis_gcc.h ****    POSSIBILITY OF SUCH DAMAGE.
  32:Drivers/CMSIS/Include/cmsis_gcc.h ****    ---------------------------------------------------------------------------*/
  33:Drivers/CMSIS/Include/cmsis_gcc.h **** 
  34:Drivers/CMSIS/Include/cmsis_gcc.h **** 
  35:Drivers/CMSIS/Include/cmsis_gcc.h **** #ifndef __CMSIS_GCC_H
  36:Drivers/CMSIS/Include/cmsis_gcc.h **** #define __CMSIS_GCC_H
  37:Drivers/CMSIS/Include/cmsis_gcc.h **** 
  38:Drivers/CMSIS/Include/cmsis_gcc.h **** /* ignore some GCC warnings */
  39:Drivers/CMSIS/Include/cmsis_gcc.h **** #if defined ( __GNUC__ )
  40:Drivers/CMSIS/Include/cmsis_gcc.h **** #pragma GCC diagnostic push
  41:Drivers/CMSIS/Include/cmsis_gcc.h **** #pragma GCC diagnostic ignored "-Wsign-conversion"
  42:Drivers/CMSIS/Include/cmsis_gcc.h **** #pragma GCC diagnostic ignored "-Wconversion"
  43:Drivers/CMSIS/Include/cmsis_gcc.h **** #pragma GCC diagnostic ignored "-Wunused-parameter"
  44:Drivers/CMSIS/Include/cmsis_gcc.h **** #endif
  45:Drivers/CMSIS/Include/cmsis_gcc.h **** 
  46:Drivers/CMSIS/Include/cmsis_gcc.h **** 
  47:Drivers/CMSIS/Include/cmsis_gcc.h **** /* ###########################  Core Function Access  ########################### */
  48:Drivers/CMSIS/Include/cmsis_gcc.h **** /** \ingroup  CMSIS_Core_FunctionInterface
  49:Drivers/CMSIS/Include/cmsis_gcc.h ****     \defgroup CMSIS_Core_RegAccFunctions CMSIS Core Register Access Functions
  50:Drivers/CMSIS/Include/cmsis_gcc.h ****   @{
  51:Drivers/CMSIS/Include/cmsis_gcc.h ****  */
  52:Drivers/CMSIS/Include/cmsis_gcc.h **** 
  53:Drivers/CMSIS/Include/cmsis_gcc.h **** /**
  54:Drivers/CMSIS/Include/cmsis_gcc.h ****   \brief   Enable IRQ Interrupts
  55:Drivers/CMSIS/Include/cmsis_gcc.h ****   \details Enables IRQ interrupts by clearing the I-bit in the CPSR.
  56:Drivers/CMSIS/Include/cmsis_gcc.h ****            Can only be executed in Privileged modes.
  57:Drivers/CMSIS/Include/cmsis_gcc.h ****  */
  58:Drivers/CMSIS/Include/cmsis_gcc.h **** __attribute__( ( always_inline ) ) __STATIC_INLINE void __enable_irq(void)
  59:Drivers/CMSIS/Include/cmsis_gcc.h **** {
  60:Drivers/CMSIS/Include/cmsis_gcc.h ****   __ASM volatile ("cpsie i" : : : "memory");
  61:Drivers/CMSIS/Include/cmsis_gcc.h **** }
  62:Drivers/CMSIS/Include/cmsis_gcc.h **** 
  63:Drivers/CMSIS/Include/cmsis_gcc.h **** 
  64:Drivers/CMSIS/Include/cmsis_gcc.h **** /**
  65:Drivers/CMSIS/Include/cmsis_gcc.h ****   \brief   Disable IRQ Interrupts
  66:Drivers/CMSIS/Include/cmsis_gcc.h ****   \details Disables IRQ interrupts by setting the I-bit in the CPSR.
  67:Drivers/CMSIS/Include/cmsis_gcc.h ****   Can only be executed in Privileged modes.
  68:Drivers/CMSIS/Include/cmsis_gcc.h ****  */
  69:Drivers/CMSIS/Include/cmsis_gcc.h **** __attribute__( ( always_inline ) ) __STATIC_INLINE void __disable_irq(void)
  70:Drivers/CMSIS/Include/cmsis_gcc.h **** {
  71:Drivers/CMSIS/Include/cmsis_gcc.h ****   __ASM volatile ("cpsid i" : : : "memory");
  72:Drivers/CMSIS/Include/cmsis_gcc.h **** }
  73:Drivers/CMSIS/Include/cmsis_gcc.h **** 
  74:Drivers/CMSIS/Include/cmsis_gcc.h **** 
ARM GAS  C:\Users\Student\AppData\Local\Temp\ccbW8nln.s 			page 24


  75:Drivers/CMSIS/Include/cmsis_gcc.h **** /**
  76:Drivers/CMSIS/Include/cmsis_gcc.h ****   \brief   Get Control Register
  77:Drivers/CMSIS/Include/cmsis_gcc.h ****   \details Returns the content of the Control Register.
  78:Drivers/CMSIS/Include/cmsis_gcc.h ****   \return               Control Register value
  79:Drivers/CMSIS/Include/cmsis_gcc.h ****  */
  80:Drivers/CMSIS/Include/cmsis_gcc.h **** __attribute__( ( always_inline ) ) __STATIC_INLINE uint32_t __get_CONTROL(void)
  81:Drivers/CMSIS/Include/cmsis_gcc.h **** {
  82:Drivers/CMSIS/Include/cmsis_gcc.h ****   uint32_t result;
  83:Drivers/CMSIS/Include/cmsis_gcc.h **** 
  84:Drivers/CMSIS/Include/cmsis_gcc.h ****   __ASM volatile ("MRS %0, control" : "=r" (result) );
  85:Drivers/CMSIS/Include/cmsis_gcc.h ****   return(result);
  86:Drivers/CMSIS/Include/cmsis_gcc.h **** }
  87:Drivers/CMSIS/Include/cmsis_gcc.h **** 
  88:Drivers/CMSIS/Include/cmsis_gcc.h **** 
  89:Drivers/CMSIS/Include/cmsis_gcc.h **** /**
  90:Drivers/CMSIS/Include/cmsis_gcc.h ****   \brief   Set Control Register
  91:Drivers/CMSIS/Include/cmsis_gcc.h ****   \details Writes the given value to the Control Register.
  92:Drivers/CMSIS/Include/cmsis_gcc.h ****   \param [in]    control  Control Register value to set
  93:Drivers/CMSIS/Include/cmsis_gcc.h ****  */
  94:Drivers/CMSIS/Include/cmsis_gcc.h **** __attribute__( ( always_inline ) ) __STATIC_INLINE void __set_CONTROL(uint32_t control)
  95:Drivers/CMSIS/Include/cmsis_gcc.h **** {
  96:Drivers/CMSIS/Include/cmsis_gcc.h ****   __ASM volatile ("MSR control, %0" : : "r" (control) : "memory");
  97:Drivers/CMSIS/Include/cmsis_gcc.h **** }
  98:Drivers/CMSIS/Include/cmsis_gcc.h **** 
  99:Drivers/CMSIS/Include/cmsis_gcc.h **** 
 100:Drivers/CMSIS/Include/cmsis_gcc.h **** /**
 101:Drivers/CMSIS/Include/cmsis_gcc.h ****   \brief   Get IPSR Register
 102:Drivers/CMSIS/Include/cmsis_gcc.h ****   \details Returns the content of the IPSR Register.
 103:Drivers/CMSIS/Include/cmsis_gcc.h ****   \return               IPSR Register value
 104:Drivers/CMSIS/Include/cmsis_gcc.h ****  */
 105:Drivers/CMSIS/Include/cmsis_gcc.h **** __attribute__( ( always_inline ) ) __STATIC_INLINE uint32_t __get_IPSR(void)
 106:Drivers/CMSIS/Include/cmsis_gcc.h **** {
 107:Drivers/CMSIS/Include/cmsis_gcc.h ****   uint32_t result;
 108:Drivers/CMSIS/Include/cmsis_gcc.h **** 
 109:Drivers/CMSIS/Include/cmsis_gcc.h ****   __ASM volatile ("MRS %0, ipsr" : "=r" (result) );
 110:Drivers/CMSIS/Include/cmsis_gcc.h ****   return(result);
 111:Drivers/CMSIS/Include/cmsis_gcc.h **** }
 112:Drivers/CMSIS/Include/cmsis_gcc.h **** 
 113:Drivers/CMSIS/Include/cmsis_gcc.h **** 
 114:Drivers/CMSIS/Include/cmsis_gcc.h **** /**
 115:Drivers/CMSIS/Include/cmsis_gcc.h ****   \brief   Get APSR Register
 116:Drivers/CMSIS/Include/cmsis_gcc.h ****   \details Returns the content of the APSR Register.
 117:Drivers/CMSIS/Include/cmsis_gcc.h ****   \return               APSR Register value
 118:Drivers/CMSIS/Include/cmsis_gcc.h ****  */
 119:Drivers/CMSIS/Include/cmsis_gcc.h **** __attribute__( ( always_inline ) ) __STATIC_INLINE uint32_t __get_APSR(void)
 120:Drivers/CMSIS/Include/cmsis_gcc.h **** {
 121:Drivers/CMSIS/Include/cmsis_gcc.h ****   uint32_t result;
 122:Drivers/CMSIS/Include/cmsis_gcc.h **** 
 123:Drivers/CMSIS/Include/cmsis_gcc.h ****   __ASM volatile ("MRS %0, apsr" : "=r" (result) );
 124:Drivers/CMSIS/Include/cmsis_gcc.h ****   return(result);
 125:Drivers/CMSIS/Include/cmsis_gcc.h **** }
 126:Drivers/CMSIS/Include/cmsis_gcc.h **** 
 127:Drivers/CMSIS/Include/cmsis_gcc.h **** 
 128:Drivers/CMSIS/Include/cmsis_gcc.h **** /**
 129:Drivers/CMSIS/Include/cmsis_gcc.h ****   \brief   Get xPSR Register
 130:Drivers/CMSIS/Include/cmsis_gcc.h ****   \details Returns the content of the xPSR Register.
 131:Drivers/CMSIS/Include/cmsis_gcc.h **** 
ARM GAS  C:\Users\Student\AppData\Local\Temp\ccbW8nln.s 			page 25


 132:Drivers/CMSIS/Include/cmsis_gcc.h ****     \return               xPSR Register value
 133:Drivers/CMSIS/Include/cmsis_gcc.h ****  */
 134:Drivers/CMSIS/Include/cmsis_gcc.h **** __attribute__( ( always_inline ) ) __STATIC_INLINE uint32_t __get_xPSR(void)
 135:Drivers/CMSIS/Include/cmsis_gcc.h **** {
 136:Drivers/CMSIS/Include/cmsis_gcc.h ****   uint32_t result;
 137:Drivers/CMSIS/Include/cmsis_gcc.h **** 
 138:Drivers/CMSIS/Include/cmsis_gcc.h ****   __ASM volatile ("MRS %0, xpsr" : "=r" (result) );
 139:Drivers/CMSIS/Include/cmsis_gcc.h ****   return(result);
 140:Drivers/CMSIS/Include/cmsis_gcc.h **** }
 141:Drivers/CMSIS/Include/cmsis_gcc.h **** 
 142:Drivers/CMSIS/Include/cmsis_gcc.h **** 
 143:Drivers/CMSIS/Include/cmsis_gcc.h **** /**
 144:Drivers/CMSIS/Include/cmsis_gcc.h ****   \brief   Get Process Stack Pointer
 145:Drivers/CMSIS/Include/cmsis_gcc.h ****   \details Returns the current value of the Process Stack Pointer (PSP).
 146:Drivers/CMSIS/Include/cmsis_gcc.h ****   \return               PSP Register value
 147:Drivers/CMSIS/Include/cmsis_gcc.h ****  */
 148:Drivers/CMSIS/Include/cmsis_gcc.h **** __attribute__( ( always_inline ) ) __STATIC_INLINE uint32_t __get_PSP(void)
 149:Drivers/CMSIS/Include/cmsis_gcc.h **** {
 150:Drivers/CMSIS/Include/cmsis_gcc.h ****   register uint32_t result;
 151:Drivers/CMSIS/Include/cmsis_gcc.h **** 
 152:Drivers/CMSIS/Include/cmsis_gcc.h ****   __ASM volatile ("MRS %0, psp\n"  : "=r" (result) );
 153:Drivers/CMSIS/Include/cmsis_gcc.h ****   return(result);
 154:Drivers/CMSIS/Include/cmsis_gcc.h **** }
 155:Drivers/CMSIS/Include/cmsis_gcc.h **** 
 156:Drivers/CMSIS/Include/cmsis_gcc.h **** 
 157:Drivers/CMSIS/Include/cmsis_gcc.h **** /**
 158:Drivers/CMSIS/Include/cmsis_gcc.h ****   \brief   Set Process Stack Pointer
 159:Drivers/CMSIS/Include/cmsis_gcc.h ****   \details Assigns the given value to the Process Stack Pointer (PSP).
 160:Drivers/CMSIS/Include/cmsis_gcc.h ****   \param [in]    topOfProcStack  Process Stack Pointer value to set
 161:Drivers/CMSIS/Include/cmsis_gcc.h ****  */
 162:Drivers/CMSIS/Include/cmsis_gcc.h **** __attribute__( ( always_inline ) ) __STATIC_INLINE void __set_PSP(uint32_t topOfProcStack)
 163:Drivers/CMSIS/Include/cmsis_gcc.h **** {
 164:Drivers/CMSIS/Include/cmsis_gcc.h ****   __ASM volatile ("MSR psp, %0\n" : : "r" (topOfProcStack) : "sp");
 165:Drivers/CMSIS/Include/cmsis_gcc.h **** }
 166:Drivers/CMSIS/Include/cmsis_gcc.h **** 
 167:Drivers/CMSIS/Include/cmsis_gcc.h **** 
 168:Drivers/CMSIS/Include/cmsis_gcc.h **** /**
 169:Drivers/CMSIS/Include/cmsis_gcc.h ****   \brief   Get Main Stack Pointer
 170:Drivers/CMSIS/Include/cmsis_gcc.h ****   \details Returns the current value of the Main Stack Pointer (MSP).
 171:Drivers/CMSIS/Include/cmsis_gcc.h ****   \return               MSP Register value
 172:Drivers/CMSIS/Include/cmsis_gcc.h ****  */
 173:Drivers/CMSIS/Include/cmsis_gcc.h **** __attribute__( ( always_inline ) ) __STATIC_INLINE uint32_t __get_MSP(void)
 174:Drivers/CMSIS/Include/cmsis_gcc.h **** {
 175:Drivers/CMSIS/Include/cmsis_gcc.h ****   register uint32_t result;
 176:Drivers/CMSIS/Include/cmsis_gcc.h **** 
 177:Drivers/CMSIS/Include/cmsis_gcc.h ****   __ASM volatile ("MRS %0, msp\n" : "=r" (result) );
 178:Drivers/CMSIS/Include/cmsis_gcc.h ****   return(result);
 179:Drivers/CMSIS/Include/cmsis_gcc.h **** }
 180:Drivers/CMSIS/Include/cmsis_gcc.h **** 
 181:Drivers/CMSIS/Include/cmsis_gcc.h **** 
 182:Drivers/CMSIS/Include/cmsis_gcc.h **** /**
 183:Drivers/CMSIS/Include/cmsis_gcc.h ****   \brief   Set Main Stack Pointer
 184:Drivers/CMSIS/Include/cmsis_gcc.h ****   \details Assigns the given value to the Main Stack Pointer (MSP).
 185:Drivers/CMSIS/Include/cmsis_gcc.h **** 
 186:Drivers/CMSIS/Include/cmsis_gcc.h ****     \param [in]    topOfMainStack  Main Stack Pointer value to set
 187:Drivers/CMSIS/Include/cmsis_gcc.h ****  */
 188:Drivers/CMSIS/Include/cmsis_gcc.h **** __attribute__( ( always_inline ) ) __STATIC_INLINE void __set_MSP(uint32_t topOfMainStack)
ARM GAS  C:\Users\Student\AppData\Local\Temp\ccbW8nln.s 			page 26


 189:Drivers/CMSIS/Include/cmsis_gcc.h **** {
 190:Drivers/CMSIS/Include/cmsis_gcc.h ****   __ASM volatile ("MSR msp, %0\n" : : "r" (topOfMainStack) : "sp");
 191:Drivers/CMSIS/Include/cmsis_gcc.h **** }
 192:Drivers/CMSIS/Include/cmsis_gcc.h **** 
 193:Drivers/CMSIS/Include/cmsis_gcc.h **** 
 194:Drivers/CMSIS/Include/cmsis_gcc.h **** /**
 195:Drivers/CMSIS/Include/cmsis_gcc.h ****   \brief   Get Priority Mask
 196:Drivers/CMSIS/Include/cmsis_gcc.h ****   \details Returns the current state of the priority mask bit from the Priority Mask Register.
 197:Drivers/CMSIS/Include/cmsis_gcc.h ****   \return               Priority Mask value
 198:Drivers/CMSIS/Include/cmsis_gcc.h ****  */
 199:Drivers/CMSIS/Include/cmsis_gcc.h **** __attribute__( ( always_inline ) ) __STATIC_INLINE uint32_t __get_PRIMASK(void)
 200:Drivers/CMSIS/Include/cmsis_gcc.h **** {
 201:Drivers/CMSIS/Include/cmsis_gcc.h ****   uint32_t result;
 202:Drivers/CMSIS/Include/cmsis_gcc.h **** 
 203:Drivers/CMSIS/Include/cmsis_gcc.h ****   __ASM volatile ("MRS %0, primask" : "=r" (result) );
 204:Drivers/CMSIS/Include/cmsis_gcc.h ****   return(result);
 205:Drivers/CMSIS/Include/cmsis_gcc.h **** }
 206:Drivers/CMSIS/Include/cmsis_gcc.h **** 
 207:Drivers/CMSIS/Include/cmsis_gcc.h **** 
 208:Drivers/CMSIS/Include/cmsis_gcc.h **** /**
 209:Drivers/CMSIS/Include/cmsis_gcc.h ****   \brief   Set Priority Mask
 210:Drivers/CMSIS/Include/cmsis_gcc.h ****   \details Assigns the given value to the Priority Mask Register.
 211:Drivers/CMSIS/Include/cmsis_gcc.h ****   \param [in]    priMask  Priority Mask
 212:Drivers/CMSIS/Include/cmsis_gcc.h ****  */
 213:Drivers/CMSIS/Include/cmsis_gcc.h **** __attribute__( ( always_inline ) ) __STATIC_INLINE void __set_PRIMASK(uint32_t priMask)
 214:Drivers/CMSIS/Include/cmsis_gcc.h **** {
 215:Drivers/CMSIS/Include/cmsis_gcc.h ****   __ASM volatile ("MSR primask, %0" : : "r" (priMask) : "memory");
 216:Drivers/CMSIS/Include/cmsis_gcc.h **** }
 217:Drivers/CMSIS/Include/cmsis_gcc.h **** 
 218:Drivers/CMSIS/Include/cmsis_gcc.h **** 
 219:Drivers/CMSIS/Include/cmsis_gcc.h **** #if       (__CORTEX_M >= 0x03U)
 220:Drivers/CMSIS/Include/cmsis_gcc.h **** 
 221:Drivers/CMSIS/Include/cmsis_gcc.h **** /**
 222:Drivers/CMSIS/Include/cmsis_gcc.h ****   \brief   Enable FIQ
 223:Drivers/CMSIS/Include/cmsis_gcc.h ****   \details Enables FIQ interrupts by clearing the F-bit in the CPSR.
 224:Drivers/CMSIS/Include/cmsis_gcc.h ****            Can only be executed in Privileged modes.
 225:Drivers/CMSIS/Include/cmsis_gcc.h ****  */
 226:Drivers/CMSIS/Include/cmsis_gcc.h **** __attribute__( ( always_inline ) ) __STATIC_INLINE void __enable_fault_irq(void)
 227:Drivers/CMSIS/Include/cmsis_gcc.h **** {
 228:Drivers/CMSIS/Include/cmsis_gcc.h ****   __ASM volatile ("cpsie f" : : : "memory");
 229:Drivers/CMSIS/Include/cmsis_gcc.h **** }
 230:Drivers/CMSIS/Include/cmsis_gcc.h **** 
 231:Drivers/CMSIS/Include/cmsis_gcc.h **** 
 232:Drivers/CMSIS/Include/cmsis_gcc.h **** /**
 233:Drivers/CMSIS/Include/cmsis_gcc.h ****   \brief   Disable FIQ
 234:Drivers/CMSIS/Include/cmsis_gcc.h ****   \details Disables FIQ interrupts by setting the F-bit in the CPSR.
 235:Drivers/CMSIS/Include/cmsis_gcc.h ****            Can only be executed in Privileged modes.
 236:Drivers/CMSIS/Include/cmsis_gcc.h ****  */
 237:Drivers/CMSIS/Include/cmsis_gcc.h **** __attribute__( ( always_inline ) ) __STATIC_INLINE void __disable_fault_irq(void)
 238:Drivers/CMSIS/Include/cmsis_gcc.h **** {
 239:Drivers/CMSIS/Include/cmsis_gcc.h ****   __ASM volatile ("cpsid f" : : : "memory");
 240:Drivers/CMSIS/Include/cmsis_gcc.h **** }
 241:Drivers/CMSIS/Include/cmsis_gcc.h **** 
 242:Drivers/CMSIS/Include/cmsis_gcc.h **** 
 243:Drivers/CMSIS/Include/cmsis_gcc.h **** /**
 244:Drivers/CMSIS/Include/cmsis_gcc.h ****   \brief   Get Base Priority
 245:Drivers/CMSIS/Include/cmsis_gcc.h ****   \details Returns the current value of the Base Priority register.
ARM GAS  C:\Users\Student\AppData\Local\Temp\ccbW8nln.s 			page 27


 246:Drivers/CMSIS/Include/cmsis_gcc.h ****   \return               Base Priority register value
 247:Drivers/CMSIS/Include/cmsis_gcc.h ****  */
 248:Drivers/CMSIS/Include/cmsis_gcc.h **** __attribute__( ( always_inline ) ) __STATIC_INLINE uint32_t __get_BASEPRI(void)
 249:Drivers/CMSIS/Include/cmsis_gcc.h **** {
 250:Drivers/CMSIS/Include/cmsis_gcc.h ****   uint32_t result;
 251:Drivers/CMSIS/Include/cmsis_gcc.h **** 
 252:Drivers/CMSIS/Include/cmsis_gcc.h ****   __ASM volatile ("MRS %0, basepri" : "=r" (result) );
 253:Drivers/CMSIS/Include/cmsis_gcc.h ****   return(result);
 254:Drivers/CMSIS/Include/cmsis_gcc.h **** }
 255:Drivers/CMSIS/Include/cmsis_gcc.h **** 
 256:Drivers/CMSIS/Include/cmsis_gcc.h **** 
 257:Drivers/CMSIS/Include/cmsis_gcc.h **** /**
 258:Drivers/CMSIS/Include/cmsis_gcc.h ****   \brief   Set Base Priority
 259:Drivers/CMSIS/Include/cmsis_gcc.h ****   \details Assigns the given value to the Base Priority register.
 260:Drivers/CMSIS/Include/cmsis_gcc.h ****   \param [in]    basePri  Base Priority value to set
 261:Drivers/CMSIS/Include/cmsis_gcc.h ****  */
 262:Drivers/CMSIS/Include/cmsis_gcc.h **** __attribute__( ( always_inline ) ) __STATIC_INLINE void __set_BASEPRI(uint32_t value)
 263:Drivers/CMSIS/Include/cmsis_gcc.h **** {
 264:Drivers/CMSIS/Include/cmsis_gcc.h ****   __ASM volatile ("MSR basepri, %0" : : "r" (value) : "memory");
 265:Drivers/CMSIS/Include/cmsis_gcc.h **** }
 266:Drivers/CMSIS/Include/cmsis_gcc.h **** 
 267:Drivers/CMSIS/Include/cmsis_gcc.h **** 
 268:Drivers/CMSIS/Include/cmsis_gcc.h **** /**
 269:Drivers/CMSIS/Include/cmsis_gcc.h ****   \brief   Set Base Priority with condition
 270:Drivers/CMSIS/Include/cmsis_gcc.h ****   \details Assigns the given value to the Base Priority register only if BASEPRI masking is disable
 271:Drivers/CMSIS/Include/cmsis_gcc.h ****            or the new value increases the BASEPRI priority level.
 272:Drivers/CMSIS/Include/cmsis_gcc.h ****   \param [in]    basePri  Base Priority value to set
 273:Drivers/CMSIS/Include/cmsis_gcc.h ****  */
 274:Drivers/CMSIS/Include/cmsis_gcc.h **** __attribute__( ( always_inline ) ) __STATIC_INLINE void __set_BASEPRI_MAX(uint32_t value)
 275:Drivers/CMSIS/Include/cmsis_gcc.h **** {
 276:Drivers/CMSIS/Include/cmsis_gcc.h ****   __ASM volatile ("MSR basepri_max, %0" : : "r" (value) : "memory");
 277:Drivers/CMSIS/Include/cmsis_gcc.h **** }
 278:Drivers/CMSIS/Include/cmsis_gcc.h **** 
 279:Drivers/CMSIS/Include/cmsis_gcc.h **** 
 280:Drivers/CMSIS/Include/cmsis_gcc.h **** /**
 281:Drivers/CMSIS/Include/cmsis_gcc.h ****   \brief   Get Fault Mask
 282:Drivers/CMSIS/Include/cmsis_gcc.h ****   \details Returns the current value of the Fault Mask register.
 283:Drivers/CMSIS/Include/cmsis_gcc.h ****   \return               Fault Mask register value
 284:Drivers/CMSIS/Include/cmsis_gcc.h ****  */
 285:Drivers/CMSIS/Include/cmsis_gcc.h **** __attribute__( ( always_inline ) ) __STATIC_INLINE uint32_t __get_FAULTMASK(void)
 286:Drivers/CMSIS/Include/cmsis_gcc.h **** {
 287:Drivers/CMSIS/Include/cmsis_gcc.h ****   uint32_t result;
 288:Drivers/CMSIS/Include/cmsis_gcc.h **** 
 289:Drivers/CMSIS/Include/cmsis_gcc.h ****   __ASM volatile ("MRS %0, faultmask" : "=r" (result) );
 290:Drivers/CMSIS/Include/cmsis_gcc.h ****   return(result);
 291:Drivers/CMSIS/Include/cmsis_gcc.h **** }
 292:Drivers/CMSIS/Include/cmsis_gcc.h **** 
 293:Drivers/CMSIS/Include/cmsis_gcc.h **** 
 294:Drivers/CMSIS/Include/cmsis_gcc.h **** /**
 295:Drivers/CMSIS/Include/cmsis_gcc.h ****   \brief   Set Fault Mask
 296:Drivers/CMSIS/Include/cmsis_gcc.h ****   \details Assigns the given value to the Fault Mask register.
 297:Drivers/CMSIS/Include/cmsis_gcc.h ****   \param [in]    faultMask  Fault Mask value to set
 298:Drivers/CMSIS/Include/cmsis_gcc.h ****  */
 299:Drivers/CMSIS/Include/cmsis_gcc.h **** __attribute__( ( always_inline ) ) __STATIC_INLINE void __set_FAULTMASK(uint32_t faultMask)
 300:Drivers/CMSIS/Include/cmsis_gcc.h **** {
 301:Drivers/CMSIS/Include/cmsis_gcc.h ****   __ASM volatile ("MSR faultmask, %0" : : "r" (faultMask) : "memory");
 302:Drivers/CMSIS/Include/cmsis_gcc.h **** }
ARM GAS  C:\Users\Student\AppData\Local\Temp\ccbW8nln.s 			page 28


 303:Drivers/CMSIS/Include/cmsis_gcc.h **** 
 304:Drivers/CMSIS/Include/cmsis_gcc.h **** #endif /* (__CORTEX_M >= 0x03U) */
 305:Drivers/CMSIS/Include/cmsis_gcc.h **** 
 306:Drivers/CMSIS/Include/cmsis_gcc.h **** 
 307:Drivers/CMSIS/Include/cmsis_gcc.h **** #if       (__CORTEX_M == 0x04U) || (__CORTEX_M == 0x07U)
 308:Drivers/CMSIS/Include/cmsis_gcc.h **** 
 309:Drivers/CMSIS/Include/cmsis_gcc.h **** /**
 310:Drivers/CMSIS/Include/cmsis_gcc.h ****   \brief   Get FPSCR
 311:Drivers/CMSIS/Include/cmsis_gcc.h ****   \details Returns the current value of the Floating Point Status/Control register.
 312:Drivers/CMSIS/Include/cmsis_gcc.h ****   \return               Floating Point Status/Control register value
 313:Drivers/CMSIS/Include/cmsis_gcc.h ****  */
 314:Drivers/CMSIS/Include/cmsis_gcc.h **** __attribute__( ( always_inline ) ) __STATIC_INLINE uint32_t __get_FPSCR(void)
 315:Drivers/CMSIS/Include/cmsis_gcc.h **** {
 316:Drivers/CMSIS/Include/cmsis_gcc.h **** #if (__FPU_PRESENT == 1U) && (__FPU_USED == 1U)
 317:Drivers/CMSIS/Include/cmsis_gcc.h ****   uint32_t result;
 318:Drivers/CMSIS/Include/cmsis_gcc.h **** 
 319:Drivers/CMSIS/Include/cmsis_gcc.h ****   /* Empty asm statement works as a scheduling barrier */
 320:Drivers/CMSIS/Include/cmsis_gcc.h ****   __ASM volatile ("");
 321:Drivers/CMSIS/Include/cmsis_gcc.h ****   __ASM volatile ("VMRS %0, fpscr" : "=r" (result) );
 322:Drivers/CMSIS/Include/cmsis_gcc.h ****   __ASM volatile ("");
 323:Drivers/CMSIS/Include/cmsis_gcc.h ****   return(result);
 324:Drivers/CMSIS/Include/cmsis_gcc.h **** #else
 325:Drivers/CMSIS/Include/cmsis_gcc.h ****    return(0);
 326:Drivers/CMSIS/Include/cmsis_gcc.h **** #endif
 327:Drivers/CMSIS/Include/cmsis_gcc.h **** }
 328:Drivers/CMSIS/Include/cmsis_gcc.h **** 
 329:Drivers/CMSIS/Include/cmsis_gcc.h **** 
 330:Drivers/CMSIS/Include/cmsis_gcc.h **** /**
 331:Drivers/CMSIS/Include/cmsis_gcc.h ****   \brief   Set FPSCR
 332:Drivers/CMSIS/Include/cmsis_gcc.h ****   \details Assigns the given value to the Floating Point Status/Control register.
 333:Drivers/CMSIS/Include/cmsis_gcc.h ****   \param [in]    fpscr  Floating Point Status/Control value to set
 334:Drivers/CMSIS/Include/cmsis_gcc.h ****  */
 335:Drivers/CMSIS/Include/cmsis_gcc.h **** __attribute__( ( always_inline ) ) __STATIC_INLINE void __set_FPSCR(uint32_t fpscr)
 336:Drivers/CMSIS/Include/cmsis_gcc.h **** {
 337:Drivers/CMSIS/Include/cmsis_gcc.h **** #if (__FPU_PRESENT == 1U) && (__FPU_USED == 1U)
 338:Drivers/CMSIS/Include/cmsis_gcc.h ****   /* Empty asm statement works as a scheduling barrier */
 339:Drivers/CMSIS/Include/cmsis_gcc.h ****   __ASM volatile ("");
 340:Drivers/CMSIS/Include/cmsis_gcc.h ****   __ASM volatile ("VMSR fpscr, %0" : : "r" (fpscr) : "vfpcc");
 341:Drivers/CMSIS/Include/cmsis_gcc.h ****   __ASM volatile ("");
 342:Drivers/CMSIS/Include/cmsis_gcc.h **** #endif
 343:Drivers/CMSIS/Include/cmsis_gcc.h **** }
 344:Drivers/CMSIS/Include/cmsis_gcc.h **** 
 345:Drivers/CMSIS/Include/cmsis_gcc.h **** #endif /* (__CORTEX_M == 0x04U) || (__CORTEX_M == 0x07U) */
 346:Drivers/CMSIS/Include/cmsis_gcc.h **** 
 347:Drivers/CMSIS/Include/cmsis_gcc.h **** 
 348:Drivers/CMSIS/Include/cmsis_gcc.h **** 
 349:Drivers/CMSIS/Include/cmsis_gcc.h **** /*@} end of CMSIS_Core_RegAccFunctions */
 350:Drivers/CMSIS/Include/cmsis_gcc.h **** 
 351:Drivers/CMSIS/Include/cmsis_gcc.h **** 
 352:Drivers/CMSIS/Include/cmsis_gcc.h **** /* ##########################  Core Instruction Access  ######################### */
 353:Drivers/CMSIS/Include/cmsis_gcc.h **** /** \defgroup CMSIS_Core_InstructionInterface CMSIS Core Instruction Interface
 354:Drivers/CMSIS/Include/cmsis_gcc.h ****   Access to dedicated instructions
 355:Drivers/CMSIS/Include/cmsis_gcc.h ****   @{
 356:Drivers/CMSIS/Include/cmsis_gcc.h **** */
 357:Drivers/CMSIS/Include/cmsis_gcc.h **** 
 358:Drivers/CMSIS/Include/cmsis_gcc.h **** /* Define macros for porting to both thumb1 and thumb2.
 359:Drivers/CMSIS/Include/cmsis_gcc.h ****  * For thumb1, use low register (r0-r7), specified by constraint "l"
ARM GAS  C:\Users\Student\AppData\Local\Temp\ccbW8nln.s 			page 29


 360:Drivers/CMSIS/Include/cmsis_gcc.h ****  * Otherwise, use general registers, specified by constraint "r" */
 361:Drivers/CMSIS/Include/cmsis_gcc.h **** #if defined (__thumb__) && !defined (__thumb2__)
 362:Drivers/CMSIS/Include/cmsis_gcc.h **** #define __CMSIS_GCC_OUT_REG(r) "=l" (r)
 363:Drivers/CMSIS/Include/cmsis_gcc.h **** #define __CMSIS_GCC_USE_REG(r) "l" (r)
 364:Drivers/CMSIS/Include/cmsis_gcc.h **** #else
 365:Drivers/CMSIS/Include/cmsis_gcc.h **** #define __CMSIS_GCC_OUT_REG(r) "=r" (r)
 366:Drivers/CMSIS/Include/cmsis_gcc.h **** #define __CMSIS_GCC_USE_REG(r) "r" (r)
 367:Drivers/CMSIS/Include/cmsis_gcc.h **** #endif
 368:Drivers/CMSIS/Include/cmsis_gcc.h **** 
 369:Drivers/CMSIS/Include/cmsis_gcc.h **** /**
 370:Drivers/CMSIS/Include/cmsis_gcc.h ****   \brief   No Operation
 371:Drivers/CMSIS/Include/cmsis_gcc.h ****   \details No Operation does nothing. This instruction can be used for code alignment purposes.
 372:Drivers/CMSIS/Include/cmsis_gcc.h ****  */
 373:Drivers/CMSIS/Include/cmsis_gcc.h **** __attribute__((always_inline)) __STATIC_INLINE void __NOP(void)
 374:Drivers/CMSIS/Include/cmsis_gcc.h **** {
 375:Drivers/CMSIS/Include/cmsis_gcc.h ****   __ASM volatile ("nop");
 376:Drivers/CMSIS/Include/cmsis_gcc.h **** }
 377:Drivers/CMSIS/Include/cmsis_gcc.h **** 
 378:Drivers/CMSIS/Include/cmsis_gcc.h **** 
 379:Drivers/CMSIS/Include/cmsis_gcc.h **** /**
 380:Drivers/CMSIS/Include/cmsis_gcc.h ****   \brief   Wait For Interrupt
 381:Drivers/CMSIS/Include/cmsis_gcc.h ****   \details Wait For Interrupt is a hint instruction that suspends execution until one of a number o
 382:Drivers/CMSIS/Include/cmsis_gcc.h ****  */
 383:Drivers/CMSIS/Include/cmsis_gcc.h **** __attribute__((always_inline)) __STATIC_INLINE void __WFI(void)
 384:Drivers/CMSIS/Include/cmsis_gcc.h **** {
 385:Drivers/CMSIS/Include/cmsis_gcc.h ****   __ASM volatile ("wfi");
 386:Drivers/CMSIS/Include/cmsis_gcc.h **** }
 387:Drivers/CMSIS/Include/cmsis_gcc.h **** 
 388:Drivers/CMSIS/Include/cmsis_gcc.h **** 
 389:Drivers/CMSIS/Include/cmsis_gcc.h **** /**
 390:Drivers/CMSIS/Include/cmsis_gcc.h ****   \brief   Wait For Event
 391:Drivers/CMSIS/Include/cmsis_gcc.h ****   \details Wait For Event is a hint instruction that permits the processor to enter
 392:Drivers/CMSIS/Include/cmsis_gcc.h ****     a low-power state until one of a number of events occurs.
 393:Drivers/CMSIS/Include/cmsis_gcc.h ****  */
 394:Drivers/CMSIS/Include/cmsis_gcc.h **** __attribute__((always_inline)) __STATIC_INLINE void __WFE(void)
 395:Drivers/CMSIS/Include/cmsis_gcc.h **** {
 396:Drivers/CMSIS/Include/cmsis_gcc.h ****   __ASM volatile ("wfe");
 397:Drivers/CMSIS/Include/cmsis_gcc.h **** }
 398:Drivers/CMSIS/Include/cmsis_gcc.h **** 
 399:Drivers/CMSIS/Include/cmsis_gcc.h **** 
 400:Drivers/CMSIS/Include/cmsis_gcc.h **** /**
 401:Drivers/CMSIS/Include/cmsis_gcc.h ****   \brief   Send Event
 402:Drivers/CMSIS/Include/cmsis_gcc.h ****   \details Send Event is a hint instruction. It causes an event to be signaled to the CPU.
 403:Drivers/CMSIS/Include/cmsis_gcc.h ****  */
 404:Drivers/CMSIS/Include/cmsis_gcc.h **** __attribute__((always_inline)) __STATIC_INLINE void __SEV(void)
 405:Drivers/CMSIS/Include/cmsis_gcc.h **** {
 406:Drivers/CMSIS/Include/cmsis_gcc.h ****   __ASM volatile ("sev");
 407:Drivers/CMSIS/Include/cmsis_gcc.h **** }
 408:Drivers/CMSIS/Include/cmsis_gcc.h **** 
 409:Drivers/CMSIS/Include/cmsis_gcc.h **** 
 410:Drivers/CMSIS/Include/cmsis_gcc.h **** /**
 411:Drivers/CMSIS/Include/cmsis_gcc.h ****   \brief   Instruction Synchronization Barrier
 412:Drivers/CMSIS/Include/cmsis_gcc.h ****   \details Instruction Synchronization Barrier flushes the pipeline in the processor,
 413:Drivers/CMSIS/Include/cmsis_gcc.h ****            so that all instructions following the ISB are fetched from cache or memory,
 414:Drivers/CMSIS/Include/cmsis_gcc.h ****            after the instruction has been completed.
 415:Drivers/CMSIS/Include/cmsis_gcc.h ****  */
 416:Drivers/CMSIS/Include/cmsis_gcc.h **** __attribute__((always_inline)) __STATIC_INLINE void __ISB(void)
ARM GAS  C:\Users\Student\AppData\Local\Temp\ccbW8nln.s 			page 30


 417:Drivers/CMSIS/Include/cmsis_gcc.h **** {
 418:Drivers/CMSIS/Include/cmsis_gcc.h ****   __ASM volatile ("isb 0xF":::"memory");
 419:Drivers/CMSIS/Include/cmsis_gcc.h **** }
 420:Drivers/CMSIS/Include/cmsis_gcc.h **** 
 421:Drivers/CMSIS/Include/cmsis_gcc.h **** 
 422:Drivers/CMSIS/Include/cmsis_gcc.h **** /**
 423:Drivers/CMSIS/Include/cmsis_gcc.h ****   \brief   Data Synchronization Barrier
 424:Drivers/CMSIS/Include/cmsis_gcc.h ****   \details Acts as a special kind of Data Memory Barrier.
 425:Drivers/CMSIS/Include/cmsis_gcc.h ****            It completes when all explicit memory accesses before this instruction complete.
 426:Drivers/CMSIS/Include/cmsis_gcc.h ****  */
 427:Drivers/CMSIS/Include/cmsis_gcc.h **** __attribute__((always_inline)) __STATIC_INLINE void __DSB(void)
 428:Drivers/CMSIS/Include/cmsis_gcc.h **** {
 429:Drivers/CMSIS/Include/cmsis_gcc.h ****   __ASM volatile ("dsb 0xF":::"memory");
 430:Drivers/CMSIS/Include/cmsis_gcc.h **** }
 431:Drivers/CMSIS/Include/cmsis_gcc.h **** 
 432:Drivers/CMSIS/Include/cmsis_gcc.h **** 
 433:Drivers/CMSIS/Include/cmsis_gcc.h **** /**
 434:Drivers/CMSIS/Include/cmsis_gcc.h ****   \brief   Data Memory Barrier
 435:Drivers/CMSIS/Include/cmsis_gcc.h ****   \details Ensures the apparent order of the explicit memory operations before
 436:Drivers/CMSIS/Include/cmsis_gcc.h ****            and after the instruction, without ensuring their completion.
 437:Drivers/CMSIS/Include/cmsis_gcc.h ****  */
 438:Drivers/CMSIS/Include/cmsis_gcc.h **** __attribute__((always_inline)) __STATIC_INLINE void __DMB(void)
 439:Drivers/CMSIS/Include/cmsis_gcc.h **** {
 440:Drivers/CMSIS/Include/cmsis_gcc.h ****   __ASM volatile ("dmb 0xF":::"memory");
 441:Drivers/CMSIS/Include/cmsis_gcc.h **** }
 442:Drivers/CMSIS/Include/cmsis_gcc.h **** 
 443:Drivers/CMSIS/Include/cmsis_gcc.h **** 
 444:Drivers/CMSIS/Include/cmsis_gcc.h **** /**
 445:Drivers/CMSIS/Include/cmsis_gcc.h ****   \brief   Reverse byte order (32 bit)
 446:Drivers/CMSIS/Include/cmsis_gcc.h ****   \details Reverses the byte order in integer value.
 447:Drivers/CMSIS/Include/cmsis_gcc.h ****   \param [in]    value  Value to reverse
 448:Drivers/CMSIS/Include/cmsis_gcc.h ****   \return               Reversed value
 449:Drivers/CMSIS/Include/cmsis_gcc.h ****  */
 450:Drivers/CMSIS/Include/cmsis_gcc.h **** __attribute__((always_inline)) __STATIC_INLINE uint32_t __REV(uint32_t value)
 451:Drivers/CMSIS/Include/cmsis_gcc.h **** {
 452:Drivers/CMSIS/Include/cmsis_gcc.h **** #if (__GNUC__ > 4) || (__GNUC__ == 4 && __GNUC_MINOR__ >= 5)
 453:Drivers/CMSIS/Include/cmsis_gcc.h ****   return __builtin_bswap32(value);
 454:Drivers/CMSIS/Include/cmsis_gcc.h **** #else
 455:Drivers/CMSIS/Include/cmsis_gcc.h ****   uint32_t result;
 456:Drivers/CMSIS/Include/cmsis_gcc.h **** 
 457:Drivers/CMSIS/Include/cmsis_gcc.h ****   __ASM volatile ("rev %0, %1" : __CMSIS_GCC_OUT_REG (result) : __CMSIS_GCC_USE_REG (value) );
 458:Drivers/CMSIS/Include/cmsis_gcc.h ****   return(result);
 459:Drivers/CMSIS/Include/cmsis_gcc.h **** #endif
 460:Drivers/CMSIS/Include/cmsis_gcc.h **** }
 461:Drivers/CMSIS/Include/cmsis_gcc.h **** 
 462:Drivers/CMSIS/Include/cmsis_gcc.h **** 
 463:Drivers/CMSIS/Include/cmsis_gcc.h **** /**
 464:Drivers/CMSIS/Include/cmsis_gcc.h ****   \brief   Reverse byte order (16 bit)
 465:Drivers/CMSIS/Include/cmsis_gcc.h ****   \details Reverses the byte order in two unsigned short values.
 466:Drivers/CMSIS/Include/cmsis_gcc.h ****   \param [in]    value  Value to reverse
 467:Drivers/CMSIS/Include/cmsis_gcc.h ****   \return               Reversed value
 468:Drivers/CMSIS/Include/cmsis_gcc.h ****  */
 469:Drivers/CMSIS/Include/cmsis_gcc.h **** __attribute__((always_inline)) __STATIC_INLINE uint32_t __REV16(uint32_t value)
 470:Drivers/CMSIS/Include/cmsis_gcc.h **** {
 471:Drivers/CMSIS/Include/cmsis_gcc.h ****   uint32_t result;
 472:Drivers/CMSIS/Include/cmsis_gcc.h **** 
 473:Drivers/CMSIS/Include/cmsis_gcc.h ****   __ASM volatile ("rev16 %0, %1" : __CMSIS_GCC_OUT_REG (result) : __CMSIS_GCC_USE_REG (value) );
ARM GAS  C:\Users\Student\AppData\Local\Temp\ccbW8nln.s 			page 31


 474:Drivers/CMSIS/Include/cmsis_gcc.h ****   return(result);
 475:Drivers/CMSIS/Include/cmsis_gcc.h **** }
 476:Drivers/CMSIS/Include/cmsis_gcc.h **** 
 477:Drivers/CMSIS/Include/cmsis_gcc.h **** 
 478:Drivers/CMSIS/Include/cmsis_gcc.h **** /**
 479:Drivers/CMSIS/Include/cmsis_gcc.h ****   \brief   Reverse byte order in signed short value
 480:Drivers/CMSIS/Include/cmsis_gcc.h ****   \details Reverses the byte order in a signed short value with sign extension to integer.
 481:Drivers/CMSIS/Include/cmsis_gcc.h ****   \param [in]    value  Value to reverse
 482:Drivers/CMSIS/Include/cmsis_gcc.h ****   \return               Reversed value
 483:Drivers/CMSIS/Include/cmsis_gcc.h ****  */
 484:Drivers/CMSIS/Include/cmsis_gcc.h **** __attribute__((always_inline)) __STATIC_INLINE int32_t __REVSH(int32_t value)
 485:Drivers/CMSIS/Include/cmsis_gcc.h **** {
 486:Drivers/CMSIS/Include/cmsis_gcc.h **** #if (__GNUC__ > 4) || (__GNUC__ == 4 && __GNUC_MINOR__ >= 8)
 487:Drivers/CMSIS/Include/cmsis_gcc.h ****   return (short)__builtin_bswap16(value);
 488:Drivers/CMSIS/Include/cmsis_gcc.h **** #else
 489:Drivers/CMSIS/Include/cmsis_gcc.h ****   int32_t result;
 490:Drivers/CMSIS/Include/cmsis_gcc.h **** 
 491:Drivers/CMSIS/Include/cmsis_gcc.h ****   __ASM volatile ("revsh %0, %1" : __CMSIS_GCC_OUT_REG (result) : __CMSIS_GCC_USE_REG (value) );
 492:Drivers/CMSIS/Include/cmsis_gcc.h ****   return(result);
 493:Drivers/CMSIS/Include/cmsis_gcc.h **** #endif
 494:Drivers/CMSIS/Include/cmsis_gcc.h **** }
 495:Drivers/CMSIS/Include/cmsis_gcc.h **** 
 496:Drivers/CMSIS/Include/cmsis_gcc.h **** 
 497:Drivers/CMSIS/Include/cmsis_gcc.h **** /**
 498:Drivers/CMSIS/Include/cmsis_gcc.h ****   \brief   Rotate Right in unsigned value (32 bit)
 499:Drivers/CMSIS/Include/cmsis_gcc.h ****   \details Rotate Right (immediate) provides the value of the contents of a register rotated by a v
 500:Drivers/CMSIS/Include/cmsis_gcc.h ****   \param [in]    value  Value to rotate
 501:Drivers/CMSIS/Include/cmsis_gcc.h ****   \param [in]    value  Number of Bits to rotate
 502:Drivers/CMSIS/Include/cmsis_gcc.h ****   \return               Rotated value
 503:Drivers/CMSIS/Include/cmsis_gcc.h ****  */
 504:Drivers/CMSIS/Include/cmsis_gcc.h **** __attribute__((always_inline)) __STATIC_INLINE uint32_t __ROR(uint32_t op1, uint32_t op2)
 505:Drivers/CMSIS/Include/cmsis_gcc.h **** {
 506:Drivers/CMSIS/Include/cmsis_gcc.h ****   return (op1 >> op2) | (op1 << (32U - op2));
 507:Drivers/CMSIS/Include/cmsis_gcc.h **** }
 508:Drivers/CMSIS/Include/cmsis_gcc.h **** 
 509:Drivers/CMSIS/Include/cmsis_gcc.h **** 
 510:Drivers/CMSIS/Include/cmsis_gcc.h **** /**
 511:Drivers/CMSIS/Include/cmsis_gcc.h ****   \brief   Breakpoint
 512:Drivers/CMSIS/Include/cmsis_gcc.h ****   \details Causes the processor to enter Debug state.
 513:Drivers/CMSIS/Include/cmsis_gcc.h ****            Debug tools can use this to investigate system state when the instruction at a particula
 514:Drivers/CMSIS/Include/cmsis_gcc.h ****   \param [in]    value  is ignored by the processor.
 515:Drivers/CMSIS/Include/cmsis_gcc.h ****                  If required, a debugger can use it to store additional information about the break
 516:Drivers/CMSIS/Include/cmsis_gcc.h ****  */
 517:Drivers/CMSIS/Include/cmsis_gcc.h **** #define __BKPT(value)                       __ASM volatile ("bkpt "#value)
 518:Drivers/CMSIS/Include/cmsis_gcc.h **** 
 519:Drivers/CMSIS/Include/cmsis_gcc.h **** 
 520:Drivers/CMSIS/Include/cmsis_gcc.h **** /**
 521:Drivers/CMSIS/Include/cmsis_gcc.h ****   \brief   Reverse bit order of value
 522:Drivers/CMSIS/Include/cmsis_gcc.h ****   \details Reverses the bit order of the given value.
 523:Drivers/CMSIS/Include/cmsis_gcc.h ****   \param [in]    value  Value to reverse
 524:Drivers/CMSIS/Include/cmsis_gcc.h ****   \return               Reversed value
 525:Drivers/CMSIS/Include/cmsis_gcc.h ****  */
 526:Drivers/CMSIS/Include/cmsis_gcc.h **** __attribute__((always_inline)) __STATIC_INLINE uint32_t __RBIT(uint32_t value)
 527:Drivers/CMSIS/Include/cmsis_gcc.h **** {
 528:Drivers/CMSIS/Include/cmsis_gcc.h ****   uint32_t result;
 529:Drivers/CMSIS/Include/cmsis_gcc.h **** 
 530:Drivers/CMSIS/Include/cmsis_gcc.h **** #if       (__CORTEX_M >= 0x03U) || (__CORTEX_SC >= 300U)
ARM GAS  C:\Users\Student\AppData\Local\Temp\ccbW8nln.s 			page 32


 531:Drivers/CMSIS/Include/cmsis_gcc.h ****    __ASM volatile ("rbit %0, %1" : "=r" (result) : "r" (value) );
 402              		.loc 2 531 0
 403 006a F022     		movs	r2, #240
 404              		.syntax unified
 405              	@ 531 "Drivers/CMSIS/Include/cmsis_gcc.h" 1
 406 006c 92FAA2F2 		rbit r2, r2
 407              	@ 0 "" 2
 408              	.LVL18:
 409              		.thumb
 410              		.syntax unified
 411              	.LBE7:
 412              	.LBE6:
 683:Drivers/BSP/STM32746G-Discovery/stm32746g_discovery_qspi.c ****       
 413              		.loc 1 683 0
 414 0070 B2FA82F2 		clz	r2, r2
 415 0074 0A21     		movs	r1, #10
 416 0076 01FA02F2 		lsl	r2, r1, r2
 417 007a 1343     		orrs	r3, r3, r2
 418 007c 8DF80730 		strb	r3, [sp, #7]
 686:Drivers/BSP/STM32746G-Discovery/stm32746g_discovery_qspi.c ****   {
 419              		.loc 1 686 0
 420 0080 41F28832 		movw	r2, #5000
 421 0084 02A9     		add	r1, sp, #8
 422 0086 2846     		mov	r0, r5
 423 0088 FFF7FEFF 		bl	HAL_QSPI_Command
 424              	.LVL19:
 425 008c 08B1     		cbz	r0, .L30
 688:Drivers/BSP/STM32746G-Discovery/stm32746g_discovery_qspi.c ****   }
 426              		.loc 1 688 0
 427 008e 0124     		movs	r4, #1
 428 0090 D1E7     		b	.L21
 429              	.L30:
 692:Drivers/BSP/STM32746G-Discovery/stm32746g_discovery_qspi.c ****   {
 430              		.loc 1 692 0
 431 0092 41F28832 		movw	r2, #5000
 432 0096 0DF10701 		add	r1, sp, #7
 433 009a 2846     		mov	r0, r5
 434 009c FFF7FEFF 		bl	HAL_QSPI_Transmit
 435              	.LVL20:
 436 00a0 0028     		cmp	r0, #0
 437 00a2 C8D0     		beq	.L21
 694:Drivers/BSP/STM32746G-Discovery/stm32746g_discovery_qspi.c ****   }
 438              		.loc 1 694 0
 439 00a4 0124     		movs	r4, #1
 440 00a6 C6E7     		b	.L21
 441              		.cfi_endproc
 442              	.LFE148:
 444              		.section	.text.BSP_QSPI_Read,"ax",%progbits
 445              		.align	1
 446              		.global	BSP_QSPI_Read
 447              		.syntax unified
 448              		.thumb
 449              		.thumb_func
 450              		.fpu fpv5-sp-d16
 452              	BSP_QSPI_Read:
 453              	.LFB138:
 195:Drivers/BSP/STM32746G-Discovery/stm32746g_discovery_qspi.c ****   QSPI_CommandTypeDef s_command;
ARM GAS  C:\Users\Student\AppData\Local\Temp\ccbW8nln.s 			page 33


 454              		.loc 1 195 0
 455              		.cfi_startproc
 456              		@ args = 0, pretend = 0, frame = 56
 457              		@ frame_needed = 0, uses_anonymous_args = 0
 458              	.LVL21:
 459 0000 10B5     		push	{r4, lr}
 460              	.LCFI16:
 461              		.cfi_def_cfa_offset 8
 462              		.cfi_offset 4, -8
 463              		.cfi_offset 14, -4
 464 0002 8EB0     		sub	sp, sp, #56
 465              	.LCFI17:
 466              		.cfi_def_cfa_offset 64
 467 0004 0446     		mov	r4, r0
 199:Drivers/BSP/STM32746G-Discovery/stm32746g_discovery_qspi.c ****   s_command.Instruction       = QUAD_INOUT_FAST_READ_CMD;
 468              		.loc 1 199 0
 469 0006 4FF48073 		mov	r3, #256
 470 000a 0693     		str	r3, [sp, #24]
 200:Drivers/BSP/STM32746G-Discovery/stm32746g_discovery_qspi.c ****   s_command.AddressMode       = QSPI_ADDRESS_4_LINES;
 471              		.loc 1 200 0
 472 000c EB23     		movs	r3, #235
 473 000e 0093     		str	r3, [sp]
 201:Drivers/BSP/STM32746G-Discovery/stm32746g_discovery_qspi.c ****   s_command.AddressSize       = QSPI_ADDRESS_24_BITS;
 474              		.loc 1 201 0
 475 0010 4FF44063 		mov	r3, #3072
 476 0014 0793     		str	r3, [sp, #28]
 202:Drivers/BSP/STM32746G-Discovery/stm32746g_discovery_qspi.c ****   s_command.Address           = ReadAddr;
 477              		.loc 1 202 0
 478 0016 4FF40053 		mov	r3, #8192
 479 001a 0393     		str	r3, [sp, #12]
 203:Drivers/BSP/STM32746G-Discovery/stm32746g_discovery_qspi.c ****   s_command.AlternateByteMode = QSPI_ALTERNATE_BYTES_NONE;
 480              		.loc 1 203 0
 481 001c 0191     		str	r1, [sp, #4]
 204:Drivers/BSP/STM32746G-Discovery/stm32746g_discovery_qspi.c ****   s_command.DataMode          = QSPI_DATA_4_LINES;
 482              		.loc 1 204 0
 483 001e 0023     		movs	r3, #0
 484 0020 0893     		str	r3, [sp, #32]
 205:Drivers/BSP/STM32746G-Discovery/stm32746g_discovery_qspi.c ****   s_command.DummyCycles       = N25Q128A_DUMMY_CYCLES_READ_QUAD;
 485              		.loc 1 205 0
 486 0022 4FF04071 		mov	r1, #50331648
 487              	.LVL22:
 488 0026 0991     		str	r1, [sp, #36]
 206:Drivers/BSP/STM32746G-Discovery/stm32746g_discovery_qspi.c ****   s_command.NbData            = Size;
 489              		.loc 1 206 0
 490 0028 0A21     		movs	r1, #10
 491 002a 0591     		str	r1, [sp, #20]
 207:Drivers/BSP/STM32746G-Discovery/stm32746g_discovery_qspi.c ****   s_command.DdrMode           = QSPI_DDR_MODE_DISABLE;
 492              		.loc 1 207 0
 493 002c 0A92     		str	r2, [sp, #40]
 208:Drivers/BSP/STM32746G-Discovery/stm32746g_discovery_qspi.c ****   s_command.DdrHoldHalfCycle  = QSPI_DDR_HHC_ANALOG_DELAY;
 494              		.loc 1 208 0
 495 002e 0B93     		str	r3, [sp, #44]
 209:Drivers/BSP/STM32746G-Discovery/stm32746g_discovery_qspi.c ****   s_command.SIOOMode          = QSPI_SIOO_INST_EVERY_CMD;
 496              		.loc 1 209 0
 497 0030 0C93     		str	r3, [sp, #48]
 210:Drivers/BSP/STM32746G-Discovery/stm32746g_discovery_qspi.c ****   
 498              		.loc 1 210 0
ARM GAS  C:\Users\Student\AppData\Local\Temp\ccbW8nln.s 			page 34


 499 0032 0D93     		str	r3, [sp, #52]
 213:Drivers/BSP/STM32746G-Discovery/stm32746g_discovery_qspi.c ****   {
 500              		.loc 1 213 0
 501 0034 41F28832 		movw	r2, #5000
 502              	.LVL23:
 503 0038 6946     		mov	r1, sp
 504 003a 1048     		ldr	r0, .L37
 505              	.LVL24:
 506 003c FFF7FEFF 		bl	HAL_QSPI_Command
 507              	.LVL25:
 508 0040 10B1     		cbz	r0, .L36
 215:Drivers/BSP/STM32746G-Discovery/stm32746g_discovery_qspi.c ****   }
 509              		.loc 1 215 0
 510 0042 0120     		movs	r0, #1
 511              	.L32:
 231:Drivers/BSP/STM32746G-Discovery/stm32746g_discovery_qspi.c **** 
 512              		.loc 1 231 0
 513 0044 0EB0     		add	sp, sp, #56
 514              	.LCFI18:
 515              		.cfi_remember_state
 516              		.cfi_def_cfa_offset 8
 517              		@ sp needed
 518 0046 10BD     		pop	{r4, pc}
 519              	.LVL26:
 520              	.L36:
 521              	.LCFI19:
 522              		.cfi_restore_state
 219:Drivers/BSP/STM32746G-Discovery/stm32746g_discovery_qspi.c ****   
 523              		.loc 1 219 0
 524 0048 0C48     		ldr	r0, .L37
 525 004a 0268     		ldr	r2, [r0]
 526 004c 5368     		ldr	r3, [r2, #4]
 527 004e 23F4E063 		bic	r3, r3, #1792
 528 0052 43F40073 		orr	r3, r3, #512
 529 0056 5360     		str	r3, [r2, #4]
 222:Drivers/BSP/STM32746G-Discovery/stm32746g_discovery_qspi.c ****   {
 530              		.loc 1 222 0
 531 0058 41F28832 		movw	r2, #5000
 532 005c 2146     		mov	r1, r4
 533 005e FFF7FEFF 		bl	HAL_QSPI_Receive
 534              	.LVL27:
 535 0062 40B9     		cbnz	r0, .L34
 228:Drivers/BSP/STM32746G-Discovery/stm32746g_discovery_qspi.c **** 
 536              		.loc 1 228 0
 537 0064 054B     		ldr	r3, .L37
 538 0066 1A68     		ldr	r2, [r3]
 539 0068 5368     		ldr	r3, [r2, #4]
 540 006a 23F4E063 		bic	r3, r3, #1792
 541 006e 43F4A063 		orr	r3, r3, #1280
 542 0072 5360     		str	r3, [r2, #4]
 230:Drivers/BSP/STM32746G-Discovery/stm32746g_discovery_qspi.c **** }
 543              		.loc 1 230 0
 544 0074 E6E7     		b	.L32
 545              	.L34:
 224:Drivers/BSP/STM32746G-Discovery/stm32746g_discovery_qspi.c ****   }
 546              		.loc 1 224 0
 547 0076 0120     		movs	r0, #1
ARM GAS  C:\Users\Student\AppData\Local\Temp\ccbW8nln.s 			page 35


 548 0078 E4E7     		b	.L32
 549              	.L38:
 550 007a 00BF     		.align	2
 551              	.L37:
 552 007c 00000000 		.word	QSPIHandle
 553              		.cfi_endproc
 554              	.LFE138:
 556              		.section	.text.BSP_QSPI_Write,"ax",%progbits
 557              		.align	1
 558              		.global	BSP_QSPI_Write
 559              		.syntax unified
 560              		.thumb
 561              		.thumb_func
 562              		.fpu fpv5-sp-d16
 564              	BSP_QSPI_Write:
 565              	.LFB139:
 241:Drivers/BSP/STM32746G-Discovery/stm32746g_discovery_qspi.c ****   QSPI_CommandTypeDef s_command;
 566              		.loc 1 241 0
 567              		.cfi_startproc
 568              		@ args = 0, pretend = 0, frame = 56
 569              		@ frame_needed = 0, uses_anonymous_args = 0
 570              	.LVL28:
 571 0000 F0B5     		push	{r4, r5, r6, r7, lr}
 572              	.LCFI20:
 573              		.cfi_def_cfa_offset 20
 574              		.cfi_offset 4, -20
 575              		.cfi_offset 5, -16
 576              		.cfi_offset 6, -12
 577              		.cfi_offset 7, -8
 578              		.cfi_offset 14, -4
 579 0002 8FB0     		sub	sp, sp, #60
 580              	.LCFI21:
 581              		.cfi_def_cfa_offset 80
 582 0004 0646     		mov	r6, r0
 583 0006 0C46     		mov	r4, r1
 246:Drivers/BSP/STM32746G-Discovery/stm32746g_discovery_qspi.c **** 
 584              		.loc 1 246 0
 585 0008 CDB2     		uxtb	r5, r1
 586 000a C5F58075 		rsb	r5, r5, #256
 587              	.LVL29:
 249:Drivers/BSP/STM32746G-Discovery/stm32746g_discovery_qspi.c ****   {
 588              		.loc 1 249 0
 589 000e 9542     		cmp	r5, r2
 590 0010 00D9     		bls	.L40
 251:Drivers/BSP/STM32746G-Discovery/stm32746g_discovery_qspi.c ****   }
 591              		.loc 1 251 0
 592 0012 1546     		mov	r5, r2
 593              	.LVL30:
 594              	.L40:
 256:Drivers/BSP/STM32746G-Discovery/stm32746g_discovery_qspi.c **** 
 595              		.loc 1 256 0
 596 0014 A718     		adds	r7, r4, r2
 597              	.LVL31:
 259:Drivers/BSP/STM32746G-Discovery/stm32746g_discovery_qspi.c ****   s_command.Instruction       = EXT_QUAD_IN_FAST_PROG_CMD;
 598              		.loc 1 259 0
 599 0016 4FF48073 		mov	r3, #256
 600 001a 0693     		str	r3, [sp, #24]
ARM GAS  C:\Users\Student\AppData\Local\Temp\ccbW8nln.s 			page 36


 260:Drivers/BSP/STM32746G-Discovery/stm32746g_discovery_qspi.c ****   s_command.AddressMode       = QSPI_ADDRESS_4_LINES;
 601              		.loc 1 260 0
 602 001c 1223     		movs	r3, #18
 603 001e 0093     		str	r3, [sp]
 261:Drivers/BSP/STM32746G-Discovery/stm32746g_discovery_qspi.c ****   s_command.AddressSize       = QSPI_ADDRESS_24_BITS;
 604              		.loc 1 261 0
 605 0020 4FF44063 		mov	r3, #3072
 606 0024 0793     		str	r3, [sp, #28]
 262:Drivers/BSP/STM32746G-Discovery/stm32746g_discovery_qspi.c ****   s_command.AlternateByteMode = QSPI_ALTERNATE_BYTES_NONE;
 607              		.loc 1 262 0
 608 0026 4FF40053 		mov	r3, #8192
 609 002a 0393     		str	r3, [sp, #12]
 263:Drivers/BSP/STM32746G-Discovery/stm32746g_discovery_qspi.c ****   s_command.DataMode          = QSPI_DATA_4_LINES;
 610              		.loc 1 263 0
 611 002c 0023     		movs	r3, #0
 612 002e 0893     		str	r3, [sp, #32]
 264:Drivers/BSP/STM32746G-Discovery/stm32746g_discovery_qspi.c ****   s_command.DummyCycles       = 0;
 613              		.loc 1 264 0
 614 0030 4FF04072 		mov	r2, #50331648
 615              	.LVL32:
 616 0034 0992     		str	r2, [sp, #36]
 265:Drivers/BSP/STM32746G-Discovery/stm32746g_discovery_qspi.c ****   s_command.DdrMode           = QSPI_DDR_MODE_DISABLE;
 617              		.loc 1 265 0
 618 0036 0593     		str	r3, [sp, #20]
 266:Drivers/BSP/STM32746G-Discovery/stm32746g_discovery_qspi.c ****   s_command.DdrHoldHalfCycle  = QSPI_DDR_HHC_ANALOG_DELAY;
 619              		.loc 1 266 0
 620 0038 0B93     		str	r3, [sp, #44]
 267:Drivers/BSP/STM32746G-Discovery/stm32746g_discovery_qspi.c ****   s_command.SIOOMode          = QSPI_SIOO_INST_EVERY_CMD;
 621              		.loc 1 267 0
 622 003a 0C93     		str	r3, [sp, #48]
 268:Drivers/BSP/STM32746G-Discovery/stm32746g_discovery_qspi.c ****   
 623              		.loc 1 268 0
 624 003c 0D93     		str	r3, [sp, #52]
 625 003e 03E0     		b	.L43
 626              	.LVL33:
 627              	.L49:
 303:Drivers/BSP/STM32746G-Discovery/stm32746g_discovery_qspi.c ****   } while (current_addr < end_addr);
 628              		.loc 1 303 0
 629 0040 4FF48075 		mov	r5, #256
 630              	.LVL34:
 631              	.L42:
 304:Drivers/BSP/STM32746G-Discovery/stm32746g_discovery_qspi.c ****   
 632              		.loc 1 304 0 discriminator 4
 633 0044 A742     		cmp	r7, r4
 634 0046 23D9     		bls	.L41
 635              	.L43:
 273:Drivers/BSP/STM32746G-Discovery/stm32746g_discovery_qspi.c ****     s_command.NbData  = current_size;
 636              		.loc 1 273 0
 637 0048 0194     		str	r4, [sp, #4]
 274:Drivers/BSP/STM32746G-Discovery/stm32746g_discovery_qspi.c **** 
 638              		.loc 1 274 0
 639 004a 0A95     		str	r5, [sp, #40]
 277:Drivers/BSP/STM32746G-Discovery/stm32746g_discovery_qspi.c ****     {
 640              		.loc 1 277 0
 641 004c 1548     		ldr	r0, .L51
 642 004e FFF7FEFF 		bl	QSPI_WriteEnable
 643              	.LVL35:
ARM GAS  C:\Users\Student\AppData\Local\Temp\ccbW8nln.s 			page 37


 644 0052 E0B9     		cbnz	r0, .L45
 283:Drivers/BSP/STM32746G-Discovery/stm32746g_discovery_qspi.c ****     {
 645              		.loc 1 283 0
 646 0054 41F28832 		movw	r2, #5000
 647 0058 6946     		mov	r1, sp
 648 005a 1248     		ldr	r0, .L51
 649 005c FFF7FEFF 		bl	HAL_QSPI_Command
 650              	.LVL36:
 651 0060 C8B9     		cbnz	r0, .L46
 289:Drivers/BSP/STM32746G-Discovery/stm32746g_discovery_qspi.c ****     {
 652              		.loc 1 289 0
 653 0062 41F28832 		movw	r2, #5000
 654 0066 3146     		mov	r1, r6
 655 0068 0E48     		ldr	r0, .L51
 656 006a FFF7FEFF 		bl	HAL_QSPI_Transmit
 657              	.LVL37:
 658 006e A0B9     		cbnz	r0, .L47
 295:Drivers/BSP/STM32746G-Discovery/stm32746g_discovery_qspi.c ****     {
 659              		.loc 1 295 0
 660 0070 41F28831 		movw	r1, #5000
 661 0074 0B48     		ldr	r0, .L51
 662 0076 FFF7FEFF 		bl	QSPI_AutoPollingMemReady
 663              	.LVL38:
 664 007a 0246     		mov	r2, r0
 665 007c 78B9     		cbnz	r0, .L48
 301:Drivers/BSP/STM32746G-Discovery/stm32746g_discovery_qspi.c ****     pData += current_size;
 666              		.loc 1 301 0
 667 007e 2C44     		add	r4, r4, r5
 668              	.LVL39:
 302:Drivers/BSP/STM32746G-Discovery/stm32746g_discovery_qspi.c ****     current_size = ((current_addr + N25Q128A_PAGE_SIZE) > end_addr) ? (end_addr - current_addr) : N
 669              		.loc 1 302 0
 670 0080 2E44     		add	r6, r6, r5
 671              	.LVL40:
 303:Drivers/BSP/STM32746G-Discovery/stm32746g_discovery_qspi.c ****   } while (current_addr < end_addr);
 672              		.loc 1 303 0
 673 0082 04F58073 		add	r3, r4, #256
 674 0086 9F42     		cmp	r7, r3
 675 0088 DAD2     		bcs	.L49
 303:Drivers/BSP/STM32746G-Discovery/stm32746g_discovery_qspi.c ****   } while (current_addr < end_addr);
 676              		.loc 1 303 0 is_stmt 0 discriminator 1
 677 008a 3D1B     		subs	r5, r7, r4
 678              	.LVL41:
 679 008c DAE7     		b	.L42
 680              	.LVL42:
 681              	.L45:
 279:Drivers/BSP/STM32746G-Discovery/stm32746g_discovery_qspi.c ****     }
 682              		.loc 1 279 0 is_stmt 1
 683 008e 0122     		movs	r2, #1
 684              	.L41:
 307:Drivers/BSP/STM32746G-Discovery/stm32746g_discovery_qspi.c **** 
 685              		.loc 1 307 0
 686 0090 1046     		mov	r0, r2
 687 0092 0FB0     		add	sp, sp, #60
 688              	.LCFI22:
 689              		.cfi_remember_state
 690              		.cfi_def_cfa_offset 20
 691              		@ sp needed
ARM GAS  C:\Users\Student\AppData\Local\Temp\ccbW8nln.s 			page 38


 692 0094 F0BD     		pop	{r4, r5, r6, r7, pc}
 693              	.LVL43:
 694              	.L46:
 695              	.LCFI23:
 696              		.cfi_restore_state
 285:Drivers/BSP/STM32746G-Discovery/stm32746g_discovery_qspi.c ****     }
 697              		.loc 1 285 0
 698 0096 0122     		movs	r2, #1
 699 0098 FAE7     		b	.L41
 700              	.L47:
 291:Drivers/BSP/STM32746G-Discovery/stm32746g_discovery_qspi.c ****     }
 701              		.loc 1 291 0
 702 009a 0122     		movs	r2, #1
 703 009c F8E7     		b	.L41
 704              	.L48:
 297:Drivers/BSP/STM32746G-Discovery/stm32746g_discovery_qspi.c ****     }
 705              		.loc 1 297 0
 706 009e 0122     		movs	r2, #1
 707 00a0 F6E7     		b	.L41
 708              	.L52:
 709 00a2 00BF     		.align	2
 710              	.L51:
 711 00a4 00000000 		.word	QSPIHandle
 712              		.cfi_endproc
 713              	.LFE139:
 715              		.section	.text.BSP_QSPI_Erase_Block,"ax",%progbits
 716              		.align	1
 717              		.global	BSP_QSPI_Erase_Block
 718              		.syntax unified
 719              		.thumb
 720              		.thumb_func
 721              		.fpu fpv5-sp-d16
 723              	BSP_QSPI_Erase_Block:
 724              	.LFB140:
 315:Drivers/BSP/STM32746G-Discovery/stm32746g_discovery_qspi.c ****   QSPI_CommandTypeDef s_command;
 725              		.loc 1 315 0
 726              		.cfi_startproc
 727              		@ args = 0, pretend = 0, frame = 56
 728              		@ frame_needed = 0, uses_anonymous_args = 0
 729              	.LVL44:
 730 0000 00B5     		push	{lr}
 731              	.LCFI24:
 732              		.cfi_def_cfa_offset 4
 733              		.cfi_offset 14, -4
 734 0002 8FB0     		sub	sp, sp, #60
 735              	.LCFI25:
 736              		.cfi_def_cfa_offset 64
 319:Drivers/BSP/STM32746G-Discovery/stm32746g_discovery_qspi.c ****   s_command.Instruction       = SUBSECTOR_ERASE_CMD;
 737              		.loc 1 319 0
 738 0004 4FF48073 		mov	r3, #256
 739 0008 0693     		str	r3, [sp, #24]
 320:Drivers/BSP/STM32746G-Discovery/stm32746g_discovery_qspi.c ****   s_command.AddressMode       = QSPI_ADDRESS_1_LINE;
 740              		.loc 1 320 0
 741 000a 2023     		movs	r3, #32
 742 000c 0093     		str	r3, [sp]
 321:Drivers/BSP/STM32746G-Discovery/stm32746g_discovery_qspi.c ****   s_command.AddressSize       = QSPI_ADDRESS_24_BITS;
 743              		.loc 1 321 0
ARM GAS  C:\Users\Student\AppData\Local\Temp\ccbW8nln.s 			page 39


 744 000e 4FF48063 		mov	r3, #1024
 745 0012 0793     		str	r3, [sp, #28]
 322:Drivers/BSP/STM32746G-Discovery/stm32746g_discovery_qspi.c ****   s_command.Address           = BlockAddress;
 746              		.loc 1 322 0
 747 0014 4FF40053 		mov	r3, #8192
 748 0018 0393     		str	r3, [sp, #12]
 323:Drivers/BSP/STM32746G-Discovery/stm32746g_discovery_qspi.c ****   s_command.AlternateByteMode = QSPI_ALTERNATE_BYTES_NONE;
 749              		.loc 1 323 0
 750 001a 0190     		str	r0, [sp, #4]
 324:Drivers/BSP/STM32746G-Discovery/stm32746g_discovery_qspi.c ****   s_command.DataMode          = QSPI_DATA_NONE;
 751              		.loc 1 324 0
 752 001c 0023     		movs	r3, #0
 753 001e 0893     		str	r3, [sp, #32]
 325:Drivers/BSP/STM32746G-Discovery/stm32746g_discovery_qspi.c ****   s_command.DummyCycles       = 0;
 754              		.loc 1 325 0
 755 0020 0993     		str	r3, [sp, #36]
 326:Drivers/BSP/STM32746G-Discovery/stm32746g_discovery_qspi.c ****   s_command.DdrMode           = QSPI_DDR_MODE_DISABLE;
 756              		.loc 1 326 0
 757 0022 0593     		str	r3, [sp, #20]
 327:Drivers/BSP/STM32746G-Discovery/stm32746g_discovery_qspi.c ****   s_command.DdrHoldHalfCycle  = QSPI_DDR_HHC_ANALOG_DELAY;
 758              		.loc 1 327 0
 759 0024 0B93     		str	r3, [sp, #44]
 328:Drivers/BSP/STM32746G-Discovery/stm32746g_discovery_qspi.c ****   s_command.SIOOMode          = QSPI_SIOO_INST_EVERY_CMD;
 760              		.loc 1 328 0
 761 0026 0C93     		str	r3, [sp, #48]
 329:Drivers/BSP/STM32746G-Discovery/stm32746g_discovery_qspi.c **** 
 762              		.loc 1 329 0
 763 0028 0D93     		str	r3, [sp, #52]
 332:Drivers/BSP/STM32746G-Discovery/stm32746g_discovery_qspi.c ****   {
 764              		.loc 1 332 0
 765 002a 0E48     		ldr	r0, .L60
 766              	.LVL45:
 767 002c FFF7FEFF 		bl	QSPI_WriteEnable
 768              	.LVL46:
 769 0030 20B1     		cbz	r0, .L58
 334:Drivers/BSP/STM32746G-Discovery/stm32746g_discovery_qspi.c ****   }
 770              		.loc 1 334 0
 771 0032 0123     		movs	r3, #1
 772              	.L54:
 350:Drivers/BSP/STM32746G-Discovery/stm32746g_discovery_qspi.c **** 
 773              		.loc 1 350 0
 774 0034 1846     		mov	r0, r3
 775 0036 0FB0     		add	sp, sp, #60
 776              	.LCFI26:
 777              		.cfi_remember_state
 778              		.cfi_def_cfa_offset 4
 779              		@ sp needed
 780 0038 5DF804FB 		ldr	pc, [sp], #4
 781              	.L58:
 782              	.LCFI27:
 783              		.cfi_restore_state
 338:Drivers/BSP/STM32746G-Discovery/stm32746g_discovery_qspi.c ****   {
 784              		.loc 1 338 0
 785 003c 41F28832 		movw	r2, #5000
 786 0040 6946     		mov	r1, sp
 787 0042 0848     		ldr	r0, .L60
 788 0044 FFF7FEFF 		bl	HAL_QSPI_Command
ARM GAS  C:\Users\Student\AppData\Local\Temp\ccbW8nln.s 			page 40


 789              	.LVL47:
 790 0048 08B1     		cbz	r0, .L59
 340:Drivers/BSP/STM32746G-Discovery/stm32746g_discovery_qspi.c ****   }
 791              		.loc 1 340 0
 792 004a 0123     		movs	r3, #1
 793 004c F2E7     		b	.L54
 794              	.L59:
 344:Drivers/BSP/STM32746G-Discovery/stm32746g_discovery_qspi.c ****   {
 795              		.loc 1 344 0
 796 004e 4FF44871 		mov	r1, #800
 797 0052 0448     		ldr	r0, .L60
 798 0054 FFF7FEFF 		bl	QSPI_AutoPollingMemReady
 799              	.LVL48:
 800 0058 0346     		mov	r3, r0
 801 005a 0028     		cmp	r0, #0
 802 005c EAD0     		beq	.L54
 346:Drivers/BSP/STM32746G-Discovery/stm32746g_discovery_qspi.c ****   }
 803              		.loc 1 346 0
 804 005e 0123     		movs	r3, #1
 805 0060 E8E7     		b	.L54
 806              	.L61:
 807 0062 00BF     		.align	2
 808              	.L60:
 809 0064 00000000 		.word	QSPIHandle
 810              		.cfi_endproc
 811              	.LFE140:
 813              		.section	.text.BSP_QSPI_Erase_Chip,"ax",%progbits
 814              		.align	1
 815              		.global	BSP_QSPI_Erase_Chip
 816              		.syntax unified
 817              		.thumb
 818              		.thumb_func
 819              		.fpu fpv5-sp-d16
 821              	BSP_QSPI_Erase_Chip:
 822              	.LFB141:
 357:Drivers/BSP/STM32746G-Discovery/stm32746g_discovery_qspi.c ****   QSPI_CommandTypeDef s_command;
 823              		.loc 1 357 0
 824              		.cfi_startproc
 825              		@ args = 0, pretend = 0, frame = 56
 826              		@ frame_needed = 0, uses_anonymous_args = 0
 827 0000 00B5     		push	{lr}
 828              	.LCFI28:
 829              		.cfi_def_cfa_offset 4
 830              		.cfi_offset 14, -4
 831 0002 8FB0     		sub	sp, sp, #60
 832              	.LCFI29:
 833              		.cfi_def_cfa_offset 64
 361:Drivers/BSP/STM32746G-Discovery/stm32746g_discovery_qspi.c ****   s_command.Instruction       = BULK_ERASE_CMD;
 834              		.loc 1 361 0
 835 0004 4FF48073 		mov	r3, #256
 836 0008 0693     		str	r3, [sp, #24]
 362:Drivers/BSP/STM32746G-Discovery/stm32746g_discovery_qspi.c ****   s_command.AddressMode       = QSPI_ADDRESS_NONE;
 837              		.loc 1 362 0
 838 000a C723     		movs	r3, #199
 839 000c 0093     		str	r3, [sp]
 363:Drivers/BSP/STM32746G-Discovery/stm32746g_discovery_qspi.c ****   s_command.AlternateByteMode = QSPI_ALTERNATE_BYTES_NONE;
 840              		.loc 1 363 0
ARM GAS  C:\Users\Student\AppData\Local\Temp\ccbW8nln.s 			page 41


 841 000e 0023     		movs	r3, #0
 842 0010 0793     		str	r3, [sp, #28]
 364:Drivers/BSP/STM32746G-Discovery/stm32746g_discovery_qspi.c ****   s_command.DataMode          = QSPI_DATA_NONE;
 843              		.loc 1 364 0
 844 0012 0893     		str	r3, [sp, #32]
 365:Drivers/BSP/STM32746G-Discovery/stm32746g_discovery_qspi.c ****   s_command.DummyCycles       = 0;
 845              		.loc 1 365 0
 846 0014 0993     		str	r3, [sp, #36]
 366:Drivers/BSP/STM32746G-Discovery/stm32746g_discovery_qspi.c ****   s_command.DdrMode           = QSPI_DDR_MODE_DISABLE;
 847              		.loc 1 366 0
 848 0016 0593     		str	r3, [sp, #20]
 367:Drivers/BSP/STM32746G-Discovery/stm32746g_discovery_qspi.c ****   s_command.DdrHoldHalfCycle  = QSPI_DDR_HHC_ANALOG_DELAY;
 849              		.loc 1 367 0
 850 0018 0B93     		str	r3, [sp, #44]
 368:Drivers/BSP/STM32746G-Discovery/stm32746g_discovery_qspi.c ****   s_command.SIOOMode          = QSPI_SIOO_INST_EVERY_CMD;
 851              		.loc 1 368 0
 852 001a 0C93     		str	r3, [sp, #48]
 369:Drivers/BSP/STM32746G-Discovery/stm32746g_discovery_qspi.c **** 
 853              		.loc 1 369 0
 854 001c 0D93     		str	r3, [sp, #52]
 372:Drivers/BSP/STM32746G-Discovery/stm32746g_discovery_qspi.c ****   {
 855              		.loc 1 372 0
 856 001e 0D48     		ldr	r0, .L69
 857 0020 FFF7FEFF 		bl	QSPI_WriteEnable
 858              	.LVL49:
 859 0024 20B1     		cbz	r0, .L67
 374:Drivers/BSP/STM32746G-Discovery/stm32746g_discovery_qspi.c ****   }
 860              		.loc 1 374 0
 861 0026 0123     		movs	r3, #1
 862              	.L63:
 390:Drivers/BSP/STM32746G-Discovery/stm32746g_discovery_qspi.c **** 
 863              		.loc 1 390 0
 864 0028 1846     		mov	r0, r3
 865 002a 0FB0     		add	sp, sp, #60
 866              	.LCFI30:
 867              		.cfi_remember_state
 868              		.cfi_def_cfa_offset 4
 869              		@ sp needed
 870 002c 5DF804FB 		ldr	pc, [sp], #4
 871              	.L67:
 872              	.LCFI31:
 873              		.cfi_restore_state
 378:Drivers/BSP/STM32746G-Discovery/stm32746g_discovery_qspi.c ****   {
 874              		.loc 1 378 0
 875 0030 41F28832 		movw	r2, #5000
 876 0034 6946     		mov	r1, sp
 877 0036 0748     		ldr	r0, .L69
 878 0038 FFF7FEFF 		bl	HAL_QSPI_Command
 879              	.LVL50:
 880 003c 08B1     		cbz	r0, .L68
 380:Drivers/BSP/STM32746G-Discovery/stm32746g_discovery_qspi.c ****   }
 881              		.loc 1 380 0
 882 003e 0123     		movs	r3, #1
 883 0040 F2E7     		b	.L63
 884              	.L68:
 384:Drivers/BSP/STM32746G-Discovery/stm32746g_discovery_qspi.c ****   {
 885              		.loc 1 384 0
ARM GAS  C:\Users\Student\AppData\Local\Temp\ccbW8nln.s 			page 42


 886 0042 0549     		ldr	r1, .L69+4
 887 0044 0348     		ldr	r0, .L69
 888 0046 FFF7FEFF 		bl	QSPI_AutoPollingMemReady
 889              	.LVL51:
 890 004a 0346     		mov	r3, r0
 891 004c 0028     		cmp	r0, #0
 892 004e EBD0     		beq	.L63
 386:Drivers/BSP/STM32746G-Discovery/stm32746g_discovery_qspi.c ****   }
 893              		.loc 1 386 0
 894 0050 0123     		movs	r3, #1
 895 0052 E9E7     		b	.L63
 896              	.L70:
 897              		.align	2
 898              	.L69:
 899 0054 00000000 		.word	QSPIHandle
 900 0058 90D00300 		.word	250000
 901              		.cfi_endproc
 902              	.LFE141:
 904              		.section	.text.BSP_QSPI_GetStatus,"ax",%progbits
 905              		.align	1
 906              		.global	BSP_QSPI_GetStatus
 907              		.syntax unified
 908              		.thumb
 909              		.thumb_func
 910              		.fpu fpv5-sp-d16
 912              	BSP_QSPI_GetStatus:
 913              	.LFB142:
 397:Drivers/BSP/STM32746G-Discovery/stm32746g_discovery_qspi.c ****   QSPI_CommandTypeDef s_command;
 914              		.loc 1 397 0
 915              		.cfi_startproc
 916              		@ args = 0, pretend = 0, frame = 64
 917              		@ frame_needed = 0, uses_anonymous_args = 0
 918 0000 00B5     		push	{lr}
 919              	.LCFI32:
 920              		.cfi_def_cfa_offset 4
 921              		.cfi_offset 14, -4
 922 0002 91B0     		sub	sp, sp, #68
 923              	.LCFI33:
 924              		.cfi_def_cfa_offset 72
 402:Drivers/BSP/STM32746G-Discovery/stm32746g_discovery_qspi.c ****   s_command.Instruction       = READ_FLAG_STATUS_REG_CMD;
 925              		.loc 1 402 0
 926 0004 4FF48073 		mov	r3, #256
 927 0008 0893     		str	r3, [sp, #32]
 403:Drivers/BSP/STM32746G-Discovery/stm32746g_discovery_qspi.c ****   s_command.AddressMode       = QSPI_ADDRESS_NONE;
 928              		.loc 1 403 0
 929 000a 7023     		movs	r3, #112
 930 000c 0293     		str	r3, [sp, #8]
 404:Drivers/BSP/STM32746G-Discovery/stm32746g_discovery_qspi.c ****   s_command.AlternateByteMode = QSPI_ALTERNATE_BYTES_NONE;
 931              		.loc 1 404 0
 932 000e 0023     		movs	r3, #0
 933 0010 0993     		str	r3, [sp, #36]
 405:Drivers/BSP/STM32746G-Discovery/stm32746g_discovery_qspi.c ****   s_command.DataMode          = QSPI_DATA_1_LINE;
 934              		.loc 1 405 0
 935 0012 0A93     		str	r3, [sp, #40]
 406:Drivers/BSP/STM32746G-Discovery/stm32746g_discovery_qspi.c ****   s_command.DummyCycles       = 0;
 936              		.loc 1 406 0
 937 0014 4FF08072 		mov	r2, #16777216
ARM GAS  C:\Users\Student\AppData\Local\Temp\ccbW8nln.s 			page 43


 938 0018 0B92     		str	r2, [sp, #44]
 407:Drivers/BSP/STM32746G-Discovery/stm32746g_discovery_qspi.c ****   s_command.NbData            = 1;
 939              		.loc 1 407 0
 940 001a 0793     		str	r3, [sp, #28]
 408:Drivers/BSP/STM32746G-Discovery/stm32746g_discovery_qspi.c ****   s_command.DdrMode           = QSPI_DDR_MODE_DISABLE;
 941              		.loc 1 408 0
 942 001c 0122     		movs	r2, #1
 943 001e 0C92     		str	r2, [sp, #48]
 409:Drivers/BSP/STM32746G-Discovery/stm32746g_discovery_qspi.c ****   s_command.DdrHoldHalfCycle  = QSPI_DDR_HHC_ANALOG_DELAY;
 944              		.loc 1 409 0
 945 0020 0D93     		str	r3, [sp, #52]
 410:Drivers/BSP/STM32746G-Discovery/stm32746g_discovery_qspi.c ****   s_command.SIOOMode          = QSPI_SIOO_INST_EVERY_CMD;
 946              		.loc 1 410 0
 947 0022 0E93     		str	r3, [sp, #56]
 411:Drivers/BSP/STM32746G-Discovery/stm32746g_discovery_qspi.c **** 
 948              		.loc 1 411 0
 949 0024 0F93     		str	r3, [sp, #60]
 414:Drivers/BSP/STM32746G-Discovery/stm32746g_discovery_qspi.c ****   {
 950              		.loc 1 414 0
 951 0026 41F28832 		movw	r2, #5000
 952 002a 02A9     		add	r1, sp, #8
 953 002c 1148     		ldr	r0, .L81
 954 002e FFF7FEFF 		bl	HAL_QSPI_Command
 955              	.LVL52:
 956 0032 18B1     		cbz	r0, .L79
 416:Drivers/BSP/STM32746G-Discovery/stm32746g_discovery_qspi.c ****   }
 957              		.loc 1 416 0
 958 0034 0120     		movs	r0, #1
 959              	.L72:
 442:Drivers/BSP/STM32746G-Discovery/stm32746g_discovery_qspi.c **** 
 960              		.loc 1 442 0
 961 0036 11B0     		add	sp, sp, #68
 962              	.LCFI34:
 963              		.cfi_remember_state
 964              		.cfi_def_cfa_offset 4
 965              		@ sp needed
 966 0038 5DF804FB 		ldr	pc, [sp], #4
 967              	.L79:
 968              	.LCFI35:
 969              		.cfi_restore_state
 420:Drivers/BSP/STM32746G-Discovery/stm32746g_discovery_qspi.c ****   {
 970              		.loc 1 420 0
 971 003c 41F28832 		movw	r2, #5000
 972 0040 0DF10701 		add	r1, sp, #7
 973 0044 0B48     		ldr	r0, .L81
 974 0046 FFF7FEFF 		bl	HAL_QSPI_Receive
 975              	.LVL53:
 976 004a 70B9     		cbnz	r0, .L74
 426:Drivers/BSP/STM32746G-Discovery/stm32746g_discovery_qspi.c ****   {
 977              		.loc 1 426 0
 978 004c 9DF80730 		ldrb	r3, [sp, #7]	@ zero_extendqisi2
 979 0050 13F03A0F 		tst	r3, #58
 980 0054 0BD1     		bne	.L75
 430:Drivers/BSP/STM32746G-Discovery/stm32746g_discovery_qspi.c ****   {
 981              		.loc 1 430 0
 982 0056 13F0440F 		tst	r3, #68
 983 005a 01D0     		beq	.L80
ARM GAS  C:\Users\Student\AppData\Local\Temp\ccbW8nln.s 			page 44


 432:Drivers/BSP/STM32746G-Discovery/stm32746g_discovery_qspi.c ****   }
 984              		.loc 1 432 0
 985 005c 0820     		movs	r0, #8
 986 005e EAE7     		b	.L72
 987              	.L80:
 434:Drivers/BSP/STM32746G-Discovery/stm32746g_discovery_qspi.c ****   {
 988              		.loc 1 434 0
 989 0060 13F0800F 		tst	r3, #128
 990 0064 E7D1     		bne	.L72
 440:Drivers/BSP/STM32746G-Discovery/stm32746g_discovery_qspi.c ****   }
 991              		.loc 1 440 0
 992 0066 0220     		movs	r0, #2
 993 0068 E5E7     		b	.L72
 994              	.L74:
 422:Drivers/BSP/STM32746G-Discovery/stm32746g_discovery_qspi.c ****   }
 995              		.loc 1 422 0
 996 006a 0120     		movs	r0, #1
 997 006c E3E7     		b	.L72
 998              	.L75:
 428:Drivers/BSP/STM32746G-Discovery/stm32746g_discovery_qspi.c ****   }
 999              		.loc 1 428 0
 1000 006e 0120     		movs	r0, #1
 1001 0070 E1E7     		b	.L72
 1002              	.L82:
 1003 0072 00BF     		.align	2
 1004              	.L81:
 1005 0074 00000000 		.word	QSPIHandle
 1006              		.cfi_endproc
 1007              	.LFE142:
 1009              		.section	.text.BSP_QSPI_GetInfo,"ax",%progbits
 1010              		.align	1
 1011              		.global	BSP_QSPI_GetInfo
 1012              		.syntax unified
 1013              		.thumb
 1014              		.thumb_func
 1015              		.fpu fpv5-sp-d16
 1017              	BSP_QSPI_GetInfo:
 1018              	.LFB143:
 450:Drivers/BSP/STM32746G-Discovery/stm32746g_discovery_qspi.c ****   /* Configure the structure with the memory configuration */
 1019              		.loc 1 450 0
 1020              		.cfi_startproc
 1021              		@ args = 0, pretend = 0, frame = 0
 1022              		@ frame_needed = 0, uses_anonymous_args = 0
 1023              		@ link register save eliminated.
 1024              	.LVL54:
 452:Drivers/BSP/STM32746G-Discovery/stm32746g_discovery_qspi.c ****   pInfo->EraseSectorSize    = N25Q128A_SUBSECTOR_SIZE;
 1025              		.loc 1 452 0
 1026 0000 4FF08073 		mov	r3, #16777216
 1027 0004 0360     		str	r3, [r0]
 453:Drivers/BSP/STM32746G-Discovery/stm32746g_discovery_qspi.c ****   pInfo->EraseSectorsNumber = (N25Q128A_FLASH_SIZE/N25Q128A_SUBSECTOR_SIZE);
 1028              		.loc 1 453 0
 1029 0006 4FF48053 		mov	r3, #4096
 1030 000a 4360     		str	r3, [r0, #4]
 454:Drivers/BSP/STM32746G-Discovery/stm32746g_discovery_qspi.c ****   pInfo->ProgPageSize       = N25Q128A_PAGE_SIZE;
 1031              		.loc 1 454 0
 1032 000c 8360     		str	r3, [r0, #8]
 455:Drivers/BSP/STM32746G-Discovery/stm32746g_discovery_qspi.c ****   pInfo->ProgPagesNumber    = (N25Q128A_FLASH_SIZE/N25Q128A_PAGE_SIZE);
ARM GAS  C:\Users\Student\AppData\Local\Temp\ccbW8nln.s 			page 45


 1033              		.loc 1 455 0
 1034 000e 4FF48073 		mov	r3, #256
 1035 0012 C360     		str	r3, [r0, #12]
 456:Drivers/BSP/STM32746G-Discovery/stm32746g_discovery_qspi.c ****   
 1036              		.loc 1 456 0
 1037 0014 4FF48033 		mov	r3, #65536
 1038 0018 0361     		str	r3, [r0, #16]
 459:Drivers/BSP/STM32746G-Discovery/stm32746g_discovery_qspi.c **** 
 1039              		.loc 1 459 0
 1040 001a 0020     		movs	r0, #0
 1041              	.LVL55:
 1042 001c 7047     		bx	lr
 1043              		.cfi_endproc
 1044              	.LFE143:
 1046              		.section	.text.BSP_QSPI_EnableMemoryMappedMode,"ax",%progbits
 1047              		.align	1
 1048              		.global	BSP_QSPI_EnableMemoryMappedMode
 1049              		.syntax unified
 1050              		.thumb
 1051              		.thumb_func
 1052              		.fpu fpv5-sp-d16
 1054              	BSP_QSPI_EnableMemoryMappedMode:
 1055              	.LFB144:
 466:Drivers/BSP/STM32746G-Discovery/stm32746g_discovery_qspi.c ****   QSPI_CommandTypeDef      s_command;
 1056              		.loc 1 466 0
 1057              		.cfi_startproc
 1058              		@ args = 0, pretend = 0, frame = 64
 1059              		@ frame_needed = 0, uses_anonymous_args = 0
 1060 0000 00B5     		push	{lr}
 1061              	.LCFI36:
 1062              		.cfi_def_cfa_offset 4
 1063              		.cfi_offset 14, -4
 1064 0002 91B0     		sub	sp, sp, #68
 1065              	.LCFI37:
 1066              		.cfi_def_cfa_offset 72
 471:Drivers/BSP/STM32746G-Discovery/stm32746g_discovery_qspi.c ****   s_command.Instruction       = QUAD_INOUT_FAST_READ_CMD;
 1067              		.loc 1 471 0
 1068 0004 4FF48073 		mov	r3, #256
 1069 0008 0893     		str	r3, [sp, #32]
 472:Drivers/BSP/STM32746G-Discovery/stm32746g_discovery_qspi.c ****   s_command.AddressMode       = QSPI_ADDRESS_4_LINES;
 1070              		.loc 1 472 0
 1071 000a EB23     		movs	r3, #235
 1072 000c 0293     		str	r3, [sp, #8]
 473:Drivers/BSP/STM32746G-Discovery/stm32746g_discovery_qspi.c ****   s_command.AddressSize       = QSPI_ADDRESS_24_BITS;
 1073              		.loc 1 473 0
 1074 000e 4FF44063 		mov	r3, #3072
 1075 0012 0993     		str	r3, [sp, #36]
 474:Drivers/BSP/STM32746G-Discovery/stm32746g_discovery_qspi.c ****   s_command.AlternateByteMode = QSPI_ALTERNATE_BYTES_NONE;
 1076              		.loc 1 474 0
 1077 0014 4FF40053 		mov	r3, #8192
 1078 0018 0593     		str	r3, [sp, #20]
 475:Drivers/BSP/STM32746G-Discovery/stm32746g_discovery_qspi.c ****   s_command.DataMode          = QSPI_DATA_4_LINES;
 1079              		.loc 1 475 0
 1080 001a 0023     		movs	r3, #0
 1081 001c 0A93     		str	r3, [sp, #40]
 476:Drivers/BSP/STM32746G-Discovery/stm32746g_discovery_qspi.c ****   s_command.DummyCycles       = N25Q128A_DUMMY_CYCLES_READ_QUAD;
 1082              		.loc 1 476 0
ARM GAS  C:\Users\Student\AppData\Local\Temp\ccbW8nln.s 			page 46


 1083 001e 4FF04072 		mov	r2, #50331648
 1084 0022 0B92     		str	r2, [sp, #44]
 477:Drivers/BSP/STM32746G-Discovery/stm32746g_discovery_qspi.c ****   s_command.DdrMode           = QSPI_DDR_MODE_DISABLE;
 1085              		.loc 1 477 0
 1086 0024 0A22     		movs	r2, #10
 1087 0026 0792     		str	r2, [sp, #28]
 478:Drivers/BSP/STM32746G-Discovery/stm32746g_discovery_qspi.c ****   s_command.DdrHoldHalfCycle  = QSPI_DDR_HHC_ANALOG_DELAY;
 1088              		.loc 1 478 0
 1089 0028 0D93     		str	r3, [sp, #52]
 479:Drivers/BSP/STM32746G-Discovery/stm32746g_discovery_qspi.c ****   s_command.SIOOMode          = QSPI_SIOO_INST_EVERY_CMD;
 1090              		.loc 1 479 0
 1091 002a 0E93     		str	r3, [sp, #56]
 480:Drivers/BSP/STM32746G-Discovery/stm32746g_discovery_qspi.c ****   
 1092              		.loc 1 480 0
 1093 002c 0F93     		str	r3, [sp, #60]
 483:Drivers/BSP/STM32746G-Discovery/stm32746g_discovery_qspi.c ****   s_mem_mapped_cfg.TimeOutPeriod     = 0;
 1094              		.loc 1 483 0
 1095 002e 0193     		str	r3, [sp, #4]
 484:Drivers/BSP/STM32746G-Discovery/stm32746g_discovery_qspi.c ****   
 1096              		.loc 1 484 0
 1097 0030 10AA     		add	r2, sp, #64
 1098 0032 42F8403D 		str	r3, [r2, #-64]!
 486:Drivers/BSP/STM32746G-Discovery/stm32746g_discovery_qspi.c ****   {
 1099              		.loc 1 486 0
 1100 0036 02A9     		add	r1, sp, #8
 1101 0038 0448     		ldr	r0, .L89
 1102 003a FFF7FEFF 		bl	HAL_QSPI_MemoryMapped
 1103              	.LVL56:
 1104 003e 18B9     		cbnz	r0, .L88
 491:Drivers/BSP/STM32746G-Discovery/stm32746g_discovery_qspi.c **** }
 1105              		.loc 1 491 0
 1106 0040 0020     		movs	r0, #0
 1107              	.L85:
 492:Drivers/BSP/STM32746G-Discovery/stm32746g_discovery_qspi.c **** 
 1108              		.loc 1 492 0
 1109 0042 11B0     		add	sp, sp, #68
 1110              	.LCFI38:
 1111              		.cfi_remember_state
 1112              		.cfi_def_cfa_offset 4
 1113              		@ sp needed
 1114 0044 5DF804FB 		ldr	pc, [sp], #4
 1115              	.L88:
 1116              	.LCFI39:
 1117              		.cfi_restore_state
 488:Drivers/BSP/STM32746G-Discovery/stm32746g_discovery_qspi.c ****   }
 1118              		.loc 1 488 0
 1119 0048 0120     		movs	r0, #1
 1120 004a FAE7     		b	.L85
 1121              	.L90:
 1122              		.align	2
 1123              	.L89:
 1124 004c 00000000 		.word	QSPIHandle
 1125              		.cfi_endproc
 1126              	.LFE144:
 1128              		.section	.text.BSP_QSPI_MspInit,"ax",%progbits
 1129              		.align	1
 1130              		.weak	BSP_QSPI_MspInit
ARM GAS  C:\Users\Student\AppData\Local\Temp\ccbW8nln.s 			page 47


 1131              		.syntax unified
 1132              		.thumb
 1133              		.thumb_func
 1134              		.fpu fpv5-sp-d16
 1136              	BSP_QSPI_MspInit:
 1137              	.LFB145:
 511:Drivers/BSP/STM32746G-Discovery/stm32746g_discovery_qspi.c ****   GPIO_InitTypeDef gpio_init_structure;
 1138              		.loc 1 511 0
 1139              		.cfi_startproc
 1140              		@ args = 0, pretend = 0, frame = 48
 1141              		@ frame_needed = 0, uses_anonymous_args = 0
 1142              	.LVL57:
 1143 0000 F0B5     		push	{r4, r5, r6, r7, lr}
 1144              	.LCFI40:
 1145              		.cfi_def_cfa_offset 20
 1146              		.cfi_offset 4, -20
 1147              		.cfi_offset 5, -16
 1148              		.cfi_offset 6, -12
 1149              		.cfi_offset 7, -8
 1150              		.cfi_offset 14, -4
 1151 0002 8DB0     		sub	sp, sp, #52
 1152              	.LCFI41:
 1153              		.cfi_def_cfa_offset 72
 1154              	.LBB8:
 516:Drivers/BSP/STM32746G-Discovery/stm32746g_discovery_qspi.c ****   /* Reset the QuadSPI memory interface */
 1155              		.loc 1 516 0
 1156 0004 454B     		ldr	r3, .L93
 1157 0006 9A6B     		ldr	r2, [r3, #56]
 1158 0008 42F00202 		orr	r2, r2, #2
 1159 000c 9A63     		str	r2, [r3, #56]
 1160 000e 9A6B     		ldr	r2, [r3, #56]
 1161 0010 02F00202 		and	r2, r2, #2
 1162 0014 0092     		str	r2, [sp]
 1163 0016 009A     		ldr	r2, [sp]
 1164              	.LBE8:
 518:Drivers/BSP/STM32746G-Discovery/stm32746g_discovery_qspi.c ****   QSPI_RELEASE_RESET();
 1165              		.loc 1 518 0
 1166 0018 9A69     		ldr	r2, [r3, #24]
 1167 001a 42F00202 		orr	r2, r2, #2
 1168 001e 9A61     		str	r2, [r3, #24]
 519:Drivers/BSP/STM32746G-Discovery/stm32746g_discovery_qspi.c ****   /* Enable GPIO clocks */
 1169              		.loc 1 519 0
 1170 0020 9A69     		ldr	r2, [r3, #24]
 1171 0022 22F00202 		bic	r2, r2, #2
 1172 0026 9A61     		str	r2, [r3, #24]
 1173              	.LBB9:
 521:Drivers/BSP/STM32746G-Discovery/stm32746g_discovery_qspi.c ****   QSPI_CLK_GPIO_CLK_ENABLE();
 1174              		.loc 1 521 0
 1175 0028 1A6B     		ldr	r2, [r3, #48]
 1176 002a 42F00202 		orr	r2, r2, #2
 1177 002e 1A63     		str	r2, [r3, #48]
 1178 0030 1A6B     		ldr	r2, [r3, #48]
 1179 0032 02F00202 		and	r2, r2, #2
 1180 0036 0192     		str	r2, [sp, #4]
 1181 0038 019A     		ldr	r2, [sp, #4]
 1182              	.LBE9:
 1183              	.LBB10:
ARM GAS  C:\Users\Student\AppData\Local\Temp\ccbW8nln.s 			page 48


 522:Drivers/BSP/STM32746G-Discovery/stm32746g_discovery_qspi.c ****   QSPI_D0_GPIO_CLK_ENABLE();
 1184              		.loc 1 522 0
 1185 003a 1A6B     		ldr	r2, [r3, #48]
 1186 003c 42F00202 		orr	r2, r2, #2
 1187 0040 1A63     		str	r2, [r3, #48]
 1188 0042 1A6B     		ldr	r2, [r3, #48]
 1189 0044 02F00202 		and	r2, r2, #2
 1190 0048 0292     		str	r2, [sp, #8]
 1191 004a 029A     		ldr	r2, [sp, #8]
 1192              	.LBE10:
 1193              	.LBB11:
 523:Drivers/BSP/STM32746G-Discovery/stm32746g_discovery_qspi.c ****   QSPI_D1_GPIO_CLK_ENABLE();
 1194              		.loc 1 523 0
 1195 004c 1A6B     		ldr	r2, [r3, #48]
 1196 004e 42F00802 		orr	r2, r2, #8
 1197 0052 1A63     		str	r2, [r3, #48]
 1198 0054 1A6B     		ldr	r2, [r3, #48]
 1199 0056 02F00802 		and	r2, r2, #8
 1200 005a 0392     		str	r2, [sp, #12]
 1201 005c 039A     		ldr	r2, [sp, #12]
 1202              	.LBE11:
 1203              	.LBB12:
 524:Drivers/BSP/STM32746G-Discovery/stm32746g_discovery_qspi.c ****   QSPI_D2_GPIO_CLK_ENABLE();
 1204              		.loc 1 524 0
 1205 005e 1A6B     		ldr	r2, [r3, #48]
 1206 0060 42F00802 		orr	r2, r2, #8
 1207 0064 1A63     		str	r2, [r3, #48]
 1208 0066 1A6B     		ldr	r2, [r3, #48]
 1209 0068 02F00802 		and	r2, r2, #8
 1210 006c 0492     		str	r2, [sp, #16]
 1211 006e 049A     		ldr	r2, [sp, #16]
 1212              	.LBE12:
 1213              	.LBB13:
 525:Drivers/BSP/STM32746G-Discovery/stm32746g_discovery_qspi.c ****   QSPI_D3_GPIO_CLK_ENABLE();
 1214              		.loc 1 525 0
 1215 0070 1A6B     		ldr	r2, [r3, #48]
 1216 0072 42F01002 		orr	r2, r2, #16
 1217 0076 1A63     		str	r2, [r3, #48]
 1218 0078 1A6B     		ldr	r2, [r3, #48]
 1219 007a 02F01002 		and	r2, r2, #16
 1220 007e 0592     		str	r2, [sp, #20]
 1221 0080 059A     		ldr	r2, [sp, #20]
 1222              	.LBE13:
 1223              	.LBB14:
 526:Drivers/BSP/STM32746G-Discovery/stm32746g_discovery_qspi.c **** 
 1224              		.loc 1 526 0
 1225 0082 1A6B     		ldr	r2, [r3, #48]
 1226 0084 42F00802 		orr	r2, r2, #8
 1227 0088 1A63     		str	r2, [r3, #48]
 1228 008a 1B6B     		ldr	r3, [r3, #48]
 1229 008c 03F00803 		and	r3, r3, #8
 1230 0090 0693     		str	r3, [sp, #24]
 1231 0092 069B     		ldr	r3, [sp, #24]
 1232              	.LBE14:
 530:Drivers/BSP/STM32746G-Discovery/stm32746g_discovery_qspi.c ****   gpio_init_structure.Mode      = GPIO_MODE_AF_PP;
 1233              		.loc 1 530 0
 1234 0094 4023     		movs	r3, #64
ARM GAS  C:\Users\Student\AppData\Local\Temp\ccbW8nln.s 			page 49


 1235 0096 0793     		str	r3, [sp, #28]
 531:Drivers/BSP/STM32746G-Discovery/stm32746g_discovery_qspi.c ****   gpio_init_structure.Pull      = GPIO_PULLUP;
 1236              		.loc 1 531 0
 1237 0098 0223     		movs	r3, #2
 1238 009a 0893     		str	r3, [sp, #32]
 532:Drivers/BSP/STM32746G-Discovery/stm32746g_discovery_qspi.c ****   gpio_init_structure.Speed     = GPIO_SPEED_HIGH;
 1239              		.loc 1 532 0
 1240 009c 0123     		movs	r3, #1
 1241 009e 0993     		str	r3, [sp, #36]
 533:Drivers/BSP/STM32746G-Discovery/stm32746g_discovery_qspi.c ****   gpio_init_structure.Alternate = GPIO_AF10_QUADSPI;
 1242              		.loc 1 533 0
 1243 00a0 0323     		movs	r3, #3
 1244 00a2 0A93     		str	r3, [sp, #40]
 534:Drivers/BSP/STM32746G-Discovery/stm32746g_discovery_qspi.c ****   HAL_GPIO_Init(QSPI_CS_GPIO_PORT, &gpio_init_structure);
 1245              		.loc 1 534 0
 1246 00a4 0A23     		movs	r3, #10
 1247 00a6 0B93     		str	r3, [sp, #44]
 535:Drivers/BSP/STM32746G-Discovery/stm32746g_discovery_qspi.c **** 
 1248              		.loc 1 535 0
 1249 00a8 1D4D     		ldr	r5, .L93+4
 1250 00aa 07A9     		add	r1, sp, #28
 1251              	.LVL58:
 1252 00ac 2846     		mov	r0, r5
 1253              	.LVL59:
 1254 00ae FFF7FEFF 		bl	HAL_GPIO_Init
 1255              	.LVL60:
 538:Drivers/BSP/STM32746G-Discovery/stm32746g_discovery_qspi.c ****   gpio_init_structure.Pull      = GPIO_NOPULL;
 1256              		.loc 1 538 0
 1257 00b2 0427     		movs	r7, #4
 1258 00b4 0797     		str	r7, [sp, #28]
 539:Drivers/BSP/STM32746G-Discovery/stm32746g_discovery_qspi.c ****   gpio_init_structure.Alternate = GPIO_AF9_QUADSPI;
 1259              		.loc 1 539 0
 1260 00b6 0026     		movs	r6, #0
 1261 00b8 0996     		str	r6, [sp, #36]
 540:Drivers/BSP/STM32746G-Discovery/stm32746g_discovery_qspi.c ****   HAL_GPIO_Init(QSPI_CLK_GPIO_PORT, &gpio_init_structure);
 1262              		.loc 1 540 0
 1263 00ba 0924     		movs	r4, #9
 1264 00bc 0B94     		str	r4, [sp, #44]
 541:Drivers/BSP/STM32746G-Discovery/stm32746g_discovery_qspi.c **** 
 1265              		.loc 1 541 0
 1266 00be 07A9     		add	r1, sp, #28
 1267 00c0 2846     		mov	r0, r5
 1268 00c2 FFF7FEFF 		bl	HAL_GPIO_Init
 1269              	.LVL61:
 544:Drivers/BSP/STM32746G-Discovery/stm32746g_discovery_qspi.c ****   gpio_init_structure.Alternate = GPIO_AF9_QUADSPI;
 1270              		.loc 1 544 0
 1271 00c6 4FF40063 		mov	r3, #2048
 1272 00ca 0793     		str	r3, [sp, #28]
 545:Drivers/BSP/STM32746G-Discovery/stm32746g_discovery_qspi.c ****   HAL_GPIO_Init(QSPI_D0_GPIO_PORT, &gpio_init_structure);
 1273              		.loc 1 545 0
 1274 00cc 0B94     		str	r4, [sp, #44]
 546:Drivers/BSP/STM32746G-Discovery/stm32746g_discovery_qspi.c **** 
 1275              		.loc 1 546 0
 1276 00ce 05F50065 		add	r5, r5, #2048
 1277 00d2 07A9     		add	r1, sp, #28
 1278 00d4 2846     		mov	r0, r5
 1279 00d6 FFF7FEFF 		bl	HAL_GPIO_Init
ARM GAS  C:\Users\Student\AppData\Local\Temp\ccbW8nln.s 			page 50


 1280              	.LVL62:
 549:Drivers/BSP/STM32746G-Discovery/stm32746g_discovery_qspi.c ****   gpio_init_structure.Alternate = GPIO_AF9_QUADSPI;
 1281              		.loc 1 549 0
 1282 00da 4FF48053 		mov	r3, #4096
 1283 00de 0793     		str	r3, [sp, #28]
 550:Drivers/BSP/STM32746G-Discovery/stm32746g_discovery_qspi.c ****   HAL_GPIO_Init(QSPI_D1_GPIO_PORT, &gpio_init_structure);
 1284              		.loc 1 550 0
 1285 00e0 0B94     		str	r4, [sp, #44]
 551:Drivers/BSP/STM32746G-Discovery/stm32746g_discovery_qspi.c **** 
 1286              		.loc 1 551 0
 1287 00e2 07A9     		add	r1, sp, #28
 1288 00e4 2846     		mov	r0, r5
 1289 00e6 FFF7FEFF 		bl	HAL_GPIO_Init
 1290              	.LVL63:
 554:Drivers/BSP/STM32746G-Discovery/stm32746g_discovery_qspi.c ****   gpio_init_structure.Alternate = GPIO_AF9_QUADSPI;
 1291              		.loc 1 554 0
 1292 00ea 0797     		str	r7, [sp, #28]
 555:Drivers/BSP/STM32746G-Discovery/stm32746g_discovery_qspi.c ****   HAL_GPIO_Init(QSPI_D2_GPIO_PORT, &gpio_init_structure);
 1293              		.loc 1 555 0
 1294 00ec 0B94     		str	r4, [sp, #44]
 556:Drivers/BSP/STM32746G-Discovery/stm32746g_discovery_qspi.c **** 
 1295              		.loc 1 556 0
 1296 00ee 07A9     		add	r1, sp, #28
 1297 00f0 0C48     		ldr	r0, .L93+8
 1298 00f2 FFF7FEFF 		bl	HAL_GPIO_Init
 1299              	.LVL64:
 559:Drivers/BSP/STM32746G-Discovery/stm32746g_discovery_qspi.c ****   gpio_init_structure.Alternate = GPIO_AF9_QUADSPI;
 1300              		.loc 1 559 0
 1301 00f6 4FF40053 		mov	r3, #8192
 1302 00fa 0793     		str	r3, [sp, #28]
 560:Drivers/BSP/STM32746G-Discovery/stm32746g_discovery_qspi.c ****   HAL_GPIO_Init(QSPI_D3_GPIO_PORT, &gpio_init_structure);
 1303              		.loc 1 560 0
 1304 00fc 0B94     		str	r4, [sp, #44]
 561:Drivers/BSP/STM32746G-Discovery/stm32746g_discovery_qspi.c **** 
 1305              		.loc 1 561 0
 1306 00fe 07A9     		add	r1, sp, #28
 1307 0100 2846     		mov	r0, r5
 1308 0102 FFF7FEFF 		bl	HAL_GPIO_Init
 1309              	.LVL65:
 565:Drivers/BSP/STM32746G-Discovery/stm32746g_discovery_qspi.c ****   HAL_NVIC_EnableIRQ(QUADSPI_IRQn);
 1310              		.loc 1 565 0
 1311 0106 3246     		mov	r2, r6
 1312 0108 0F21     		movs	r1, #15
 1313 010a 5C20     		movs	r0, #92
 1314 010c FFF7FEFF 		bl	HAL_NVIC_SetPriority
 1315              	.LVL66:
 566:Drivers/BSP/STM32746G-Discovery/stm32746g_discovery_qspi.c **** }
 1316              		.loc 1 566 0
 1317 0110 5C20     		movs	r0, #92
 1318 0112 FFF7FEFF 		bl	HAL_NVIC_EnableIRQ
 1319              	.LVL67:
 567:Drivers/BSP/STM32746G-Discovery/stm32746g_discovery_qspi.c **** 
 1320              		.loc 1 567 0
 1321 0116 0DB0     		add	sp, sp, #52
 1322              	.LCFI42:
 1323              		.cfi_def_cfa_offset 20
 1324              		@ sp needed
ARM GAS  C:\Users\Student\AppData\Local\Temp\ccbW8nln.s 			page 51


 1325 0118 F0BD     		pop	{r4, r5, r6, r7, pc}
 1326              	.L94:
 1327 011a 00BF     		.align	2
 1328              	.L93:
 1329 011c 00380240 		.word	1073887232
 1330 0120 00040240 		.word	1073873920
 1331 0124 00100240 		.word	1073876992
 1332              		.cfi_endproc
 1333              	.LFE145:
 1335              		.section	.text.BSP_QSPI_Init,"ax",%progbits
 1336              		.align	1
 1337              		.global	BSP_QSPI_Init
 1338              		.syntax unified
 1339              		.thumb
 1340              		.thumb_func
 1341              		.fpu fpv5-sp-d16
 1343              	BSP_QSPI_Init:
 1344              	.LFB136:
 125:Drivers/BSP/STM32746G-Discovery/stm32746g_discovery_qspi.c ****   QSPIHandle.Instance = QUADSPI;
 1345              		.loc 1 125 0
 1346              		.cfi_startproc
 1347              		@ args = 0, pretend = 0, frame = 0
 1348              		@ frame_needed = 0, uses_anonymous_args = 0
 1349 0000 10B5     		push	{r4, lr}
 1350              	.LCFI43:
 1351              		.cfi_def_cfa_offset 8
 1352              		.cfi_offset 4, -8
 1353              		.cfi_offset 14, -4
 126:Drivers/BSP/STM32746G-Discovery/stm32746g_discovery_qspi.c **** 
 1354              		.loc 1 126 0
 1355 0002 1B48     		ldr	r0, .L104
 1356 0004 1B4B     		ldr	r3, .L104+4
 1357 0006 0360     		str	r3, [r0]
 129:Drivers/BSP/STM32746G-Discovery/stm32746g_discovery_qspi.c ****   {
 1358              		.loc 1 129 0
 1359 0008 FFF7FEFF 		bl	HAL_QSPI_DeInit
 1360              	.LVL68:
 1361 000c 10B1     		cbz	r0, .L101
 131:Drivers/BSP/STM32746G-Discovery/stm32746g_discovery_qspi.c ****   }
 1362              		.loc 1 131 0
 1363 000e 0123     		movs	r3, #1
 1364              	.L96:
 165:Drivers/BSP/STM32746G-Discovery/stm32746g_discovery_qspi.c **** 
 1365              		.loc 1 165 0
 1366 0010 1846     		mov	r0, r3
 1367 0012 10BD     		pop	{r4, pc}
 1368              	.L101:
 135:Drivers/BSP/STM32746G-Discovery/stm32746g_discovery_qspi.c ****   
 1369              		.loc 1 135 0
 1370 0014 164C     		ldr	r4, .L104
 1371 0016 0021     		movs	r1, #0
 1372 0018 2046     		mov	r0, r4
 1373 001a FFF7FEFF 		bl	BSP_QSPI_MspInit
 1374              	.LVL69:
 138:Drivers/BSP/STM32746G-Discovery/stm32746g_discovery_qspi.c ****   QSPIHandle.Init.FifoThreshold      = 4;
 1375              		.loc 1 138 0
 1376 001e 0123     		movs	r3, #1
ARM GAS  C:\Users\Student\AppData\Local\Temp\ccbW8nln.s 			page 52


 1377 0020 6360     		str	r3, [r4, #4]
 139:Drivers/BSP/STM32746G-Discovery/stm32746g_discovery_qspi.c ****   QSPIHandle.Init.SampleShifting     = QSPI_SAMPLE_SHIFTING_HALFCYCLE;
 1378              		.loc 1 139 0
 1379 0022 0423     		movs	r3, #4
 1380 0024 A360     		str	r3, [r4, #8]
 140:Drivers/BSP/STM32746G-Discovery/stm32746g_discovery_qspi.c ****   QSPIHandle.Init.FlashSize          = POSITION_VAL(N25Q128A_FLASH_SIZE) - 1;
 1381              		.loc 1 140 0
 1382 0026 1023     		movs	r3, #16
 1383 0028 E360     		str	r3, [r4, #12]
 1384              	.LVL70:
 1385              	.LBB15:
 1386              	.LBB16:
 1387              		.loc 2 531 0
 1388 002a 4FF08073 		mov	r3, #16777216
 1389              		.syntax unified
 1390              	@ 531 "Drivers/CMSIS/Include/cmsis_gcc.h" 1
 1391 002e 93FAA3F3 		rbit r3, r3
 1392              	@ 0 "" 2
 1393              	.LVL71:
 1394              		.thumb
 1395              		.syntax unified
 1396              	.LBE16:
 1397              	.LBE15:
 141:Drivers/BSP/STM32746G-Discovery/stm32746g_discovery_qspi.c ****   QSPIHandle.Init.ChipSelectHighTime = QSPI_CS_HIGH_TIME_6_CYCLE; /* Min 50ns for nonRead */
 1398              		.loc 1 141 0
 1399 0032 B3FA83F3 		clz	r3, r3
 1400 0036 013B     		subs	r3, r3, #1
 1401 0038 2361     		str	r3, [r4, #16]
 142:Drivers/BSP/STM32746G-Discovery/stm32746g_discovery_qspi.c ****   QSPIHandle.Init.ClockMode          = QSPI_CLOCK_MODE_0;
 1402              		.loc 1 142 0
 1403 003a 4FF4A063 		mov	r3, #1280
 1404 003e 6361     		str	r3, [r4, #20]
 143:Drivers/BSP/STM32746G-Discovery/stm32746g_discovery_qspi.c ****   QSPIHandle.Init.FlashID            = QSPI_FLASH_ID_1;
 1405              		.loc 1 143 0
 1406 0040 0023     		movs	r3, #0
 1407 0042 A361     		str	r3, [r4, #24]
 144:Drivers/BSP/STM32746G-Discovery/stm32746g_discovery_qspi.c ****   QSPIHandle.Init.DualFlash          = QSPI_DUALFLASH_DISABLE;
 1408              		.loc 1 144 0
 1409 0044 E361     		str	r3, [r4, #28]
 145:Drivers/BSP/STM32746G-Discovery/stm32746g_discovery_qspi.c **** 
 1410              		.loc 1 145 0
 1411 0046 2362     		str	r3, [r4, #32]
 147:Drivers/BSP/STM32746G-Discovery/stm32746g_discovery_qspi.c ****   {
 1412              		.loc 1 147 0
 1413 0048 2046     		mov	r0, r4
 1414 004a FFF7FEFF 		bl	HAL_QSPI_Init
 1415              	.LVL72:
 1416 004e 08B1     		cbz	r0, .L102
 149:Drivers/BSP/STM32746G-Discovery/stm32746g_discovery_qspi.c ****   }
 1417              		.loc 1 149 0
 1418 0050 0123     		movs	r3, #1
 1419 0052 DDE7     		b	.L96
 1420              	.L102:
 153:Drivers/BSP/STM32746G-Discovery/stm32746g_discovery_qspi.c ****   {
 1421              		.loc 1 153 0
 1422 0054 2046     		mov	r0, r4
 1423 0056 FFF7FEFF 		bl	QSPI_ResetMemory
ARM GAS  C:\Users\Student\AppData\Local\Temp\ccbW8nln.s 			page 53


 1424              	.LVL73:
 1425 005a 08B1     		cbz	r0, .L103
 155:Drivers/BSP/STM32746G-Discovery/stm32746g_discovery_qspi.c ****   }
 1426              		.loc 1 155 0
 1427 005c 0423     		movs	r3, #4
 1428 005e D7E7     		b	.L96
 1429              	.L103:
 159:Drivers/BSP/STM32746G-Discovery/stm32746g_discovery_qspi.c ****   {
 1430              		.loc 1 159 0
 1431 0060 2046     		mov	r0, r4
 1432 0062 FFF7FEFF 		bl	QSPI_DummyCyclesCfg
 1433              	.LVL74:
 1434 0066 0346     		mov	r3, r0
 1435 0068 0028     		cmp	r0, #0
 1436 006a D1D0     		beq	.L96
 161:Drivers/BSP/STM32746G-Discovery/stm32746g_discovery_qspi.c ****   }
 1437              		.loc 1 161 0
 1438 006c 0423     		movs	r3, #4
 1439 006e CFE7     		b	.L96
 1440              	.L105:
 1441              		.align	2
 1442              	.L104:
 1443 0070 00000000 		.word	QSPIHandle
 1444 0074 001000A0 		.word	-1610608640
 1445              		.cfi_endproc
 1446              	.LFE136:
 1448              		.section	.text.BSP_QSPI_MspDeInit,"ax",%progbits
 1449              		.align	1
 1450              		.weak	BSP_QSPI_MspDeInit
 1451              		.syntax unified
 1452              		.thumb
 1453              		.thumb_func
 1454              		.fpu fpv5-sp-d16
 1456              	BSP_QSPI_MspDeInit:
 1457              	.LFB146:
 577:Drivers/BSP/STM32746G-Discovery/stm32746g_discovery_qspi.c ****   /*##-1- Disable the NVIC for QSPI ###########################################*/
 1458              		.loc 1 577 0
 1459              		.cfi_startproc
 1460              		@ args = 0, pretend = 0, frame = 0
 1461              		@ frame_needed = 0, uses_anonymous_args = 0
 1462              	.LVL75:
 1463 0000 10B5     		push	{r4, lr}
 1464              	.LCFI44:
 1465              		.cfi_def_cfa_offset 8
 1466              		.cfi_offset 4, -8
 1467              		.cfi_offset 14, -4
 579:Drivers/BSP/STM32746G-Discovery/stm32746g_discovery_qspi.c **** 
 1468              		.loc 1 579 0
 1469 0002 5C20     		movs	r0, #92
 1470              	.LVL76:
 1471 0004 FFF7FEFF 		bl	HAL_NVIC_DisableIRQ
 1472              	.LVL77:
 583:Drivers/BSP/STM32746G-Discovery/stm32746g_discovery_qspi.c ****   HAL_GPIO_DeInit(QSPI_CLK_GPIO_PORT, QSPI_CLK_PIN);
 1473              		.loc 1 583 0
 1474 0008 154C     		ldr	r4, .L108
 1475 000a 4021     		movs	r1, #64
 1476 000c 2046     		mov	r0, r4
ARM GAS  C:\Users\Student\AppData\Local\Temp\ccbW8nln.s 			page 54


 1477 000e FFF7FEFF 		bl	HAL_GPIO_DeInit
 1478              	.LVL78:
 584:Drivers/BSP/STM32746G-Discovery/stm32746g_discovery_qspi.c ****   HAL_GPIO_DeInit(QSPI_D0_GPIO_PORT, QSPI_D0_PIN);
 1479              		.loc 1 584 0
 1480 0012 0421     		movs	r1, #4
 1481 0014 2046     		mov	r0, r4
 1482 0016 FFF7FEFF 		bl	HAL_GPIO_DeInit
 1483              	.LVL79:
 585:Drivers/BSP/STM32746G-Discovery/stm32746g_discovery_qspi.c ****   HAL_GPIO_DeInit(QSPI_D1_GPIO_PORT, QSPI_D1_PIN);
 1484              		.loc 1 585 0
 1485 001a 04F50064 		add	r4, r4, #2048
 1486 001e 4FF40061 		mov	r1, #2048
 1487 0022 2046     		mov	r0, r4
 1488 0024 FFF7FEFF 		bl	HAL_GPIO_DeInit
 1489              	.LVL80:
 586:Drivers/BSP/STM32746G-Discovery/stm32746g_discovery_qspi.c ****   HAL_GPIO_DeInit(QSPI_D2_GPIO_PORT, QSPI_D2_PIN);
 1490              		.loc 1 586 0
 1491 0028 4FF48051 		mov	r1, #4096
 1492 002c 2046     		mov	r0, r4
 1493 002e FFF7FEFF 		bl	HAL_GPIO_DeInit
 1494              	.LVL81:
 587:Drivers/BSP/STM32746G-Discovery/stm32746g_discovery_qspi.c ****   HAL_GPIO_DeInit(QSPI_D3_GPIO_PORT, QSPI_D3_PIN);
 1495              		.loc 1 587 0
 1496 0032 0421     		movs	r1, #4
 1497 0034 0B48     		ldr	r0, .L108+4
 1498 0036 FFF7FEFF 		bl	HAL_GPIO_DeInit
 1499              	.LVL82:
 588:Drivers/BSP/STM32746G-Discovery/stm32746g_discovery_qspi.c **** 
 1500              		.loc 1 588 0
 1501 003a 4FF40051 		mov	r1, #8192
 1502 003e 2046     		mov	r0, r4
 1503 0040 FFF7FEFF 		bl	HAL_GPIO_DeInit
 1504              	.LVL83:
 592:Drivers/BSP/STM32746G-Discovery/stm32746g_discovery_qspi.c ****   QSPI_RELEASE_RESET();
 1505              		.loc 1 592 0
 1506 0044 084B     		ldr	r3, .L108+8
 1507 0046 9A69     		ldr	r2, [r3, #24]
 1508 0048 42F00202 		orr	r2, r2, #2
 1509 004c 9A61     		str	r2, [r3, #24]
 593:Drivers/BSP/STM32746G-Discovery/stm32746g_discovery_qspi.c **** 
 1510              		.loc 1 593 0
 1511 004e 9A69     		ldr	r2, [r3, #24]
 1512 0050 22F00202 		bic	r2, r2, #2
 1513 0054 9A61     		str	r2, [r3, #24]
 596:Drivers/BSP/STM32746G-Discovery/stm32746g_discovery_qspi.c **** }
 1514              		.loc 1 596 0
 1515 0056 9A6B     		ldr	r2, [r3, #56]
 1516 0058 22F00202 		bic	r2, r2, #2
 1517 005c 9A63     		str	r2, [r3, #56]
 1518 005e 10BD     		pop	{r4, pc}
 1519              	.L109:
 1520              		.align	2
 1521              	.L108:
 1522 0060 00040240 		.word	1073873920
 1523 0064 00100240 		.word	1073876992
 1524 0068 00380240 		.word	1073887232
 1525              		.cfi_endproc
ARM GAS  C:\Users\Student\AppData\Local\Temp\ccbW8nln.s 			page 55


 1526              	.LFE146:
 1528              		.section	.text.BSP_QSPI_DeInit,"ax",%progbits
 1529              		.align	1
 1530              		.global	BSP_QSPI_DeInit
 1531              		.syntax unified
 1532              		.thumb
 1533              		.thumb_func
 1534              		.fpu fpv5-sp-d16
 1536              	BSP_QSPI_DeInit:
 1537              	.LFB137:
 172:Drivers/BSP/STM32746G-Discovery/stm32746g_discovery_qspi.c ****   QSPIHandle.Instance = QUADSPI;
 1538              		.loc 1 172 0
 1539              		.cfi_startproc
 1540              		@ args = 0, pretend = 0, frame = 0
 1541              		@ frame_needed = 0, uses_anonymous_args = 0
 1542 0000 08B5     		push	{r3, lr}
 1543              	.LCFI45:
 1544              		.cfi_def_cfa_offset 8
 1545              		.cfi_offset 3, -8
 1546              		.cfi_offset 14, -4
 173:Drivers/BSP/STM32746G-Discovery/stm32746g_discovery_qspi.c **** 
 1547              		.loc 1 173 0
 1548 0002 0748     		ldr	r0, .L115
 1549 0004 074B     		ldr	r3, .L115+4
 1550 0006 0360     		str	r3, [r0]
 176:Drivers/BSP/STM32746G-Discovery/stm32746g_discovery_qspi.c ****   {
 1551              		.loc 1 176 0
 1552 0008 FFF7FEFF 		bl	HAL_QSPI_DeInit
 1553              	.LVL84:
 1554 000c 08B1     		cbz	r0, .L114
 178:Drivers/BSP/STM32746G-Discovery/stm32746g_discovery_qspi.c ****   }
 1555              		.loc 1 178 0
 1556 000e 0120     		movs	r0, #1
 185:Drivers/BSP/STM32746G-Discovery/stm32746g_discovery_qspi.c **** 
 1557              		.loc 1 185 0
 1558 0010 08BD     		pop	{r3, pc}
 1559              	.L114:
 182:Drivers/BSP/STM32746G-Discovery/stm32746g_discovery_qspi.c ****   
 1560              		.loc 1 182 0
 1561 0012 0021     		movs	r1, #0
 1562 0014 0248     		ldr	r0, .L115
 1563 0016 FFF7FEFF 		bl	BSP_QSPI_MspDeInit
 1564              	.LVL85:
 184:Drivers/BSP/STM32746G-Discovery/stm32746g_discovery_qspi.c **** }
 1565              		.loc 1 184 0
 1566 001a 0020     		movs	r0, #0
 1567 001c 08BD     		pop	{r3, pc}
 1568              	.L116:
 1569 001e 00BF     		.align	2
 1570              	.L115:
 1571 0020 00000000 		.word	QSPIHandle
 1572 0024 001000A0 		.word	-1610608640
 1573              		.cfi_endproc
 1574              	.LFE137:
 1576              		.comm	QSPIHandle,76,4
 1577              		.text
 1578              	.Letext0:
ARM GAS  C:\Users\Student\AppData\Local\Temp\ccbW8nln.s 			page 56


 1579              		.file 3 "c:\\gcc_toolchain\\6_2017-q1-update\\arm-none-eabi\\include\\machine\\_default_types.h"
 1580              		.file 4 "c:\\gcc_toolchain\\6_2017-q1-update\\arm-none-eabi\\include\\sys\\_stdint.h"
 1581              		.file 5 "Drivers/CMSIS/Include/core_cm7.h"
 1582              		.file 6 "Drivers/CMSIS/Device/ST/STM32F7xx/Include/system_stm32f7xx.h"
 1583              		.file 7 "Drivers/CMSIS/Device/ST/STM32F7xx/Include/stm32f746xx.h"
 1584              		.file 8 "c:\\gcc_toolchain\\6_2017-q1-update\\arm-none-eabi\\include\\sys\\lock.h"
 1585              		.file 9 "c:\\gcc_toolchain\\6_2017-q1-update\\arm-none-eabi\\include\\sys\\_types.h"
 1586              		.file 10 "c:\\gcc_toolchain\\6_2017-q1-update\\lib\\gcc\\arm-none-eabi\\6.3.1\\include\\stddef.h"
 1587              		.file 11 "c:\\gcc_toolchain\\6_2017-q1-update\\arm-none-eabi\\include\\sys\\reent.h"
 1588              		.file 12 "Drivers/STM32F7xx_HAL_Driver/Inc/stm32f7xx_hal_def.h"
 1589              		.file 13 "Drivers/STM32F7xx_HAL_Driver/Inc/stm32f7xx_hal_gpio.h"
 1590              		.file 14 "Drivers/STM32F7xx_HAL_Driver/Inc/stm32f7xx_hal_dma.h"
 1591              		.file 15 "Drivers/STM32F7xx_HAL_Driver/Inc/stm32f7xx_hal_qspi.h"
 1592              		.file 16 "Drivers/BSP/STM32746G-Discovery/stm32746g_discovery_qspi.h"
 1593              		.file 17 "Drivers/STM32F7xx_HAL_Driver/Inc/stm32f7xx_hal_cortex.h"
ARM GAS  C:\Users\Student\AppData\Local\Temp\ccbW8nln.s 			page 57

